EXPORTS 
	?$TSS0@?1???$castTo@VCharArray@data@matlab@@$00@detail@data@matlab@@YA?AVCharArray@23@V?$shared_ptr@VReferenceImpl@detail@data@matlab@@@std@@@Z@4HA 	 DATA
	?$TSS0@?1???$createArray@N@ArrayFactory@data@matlab@@QEAA?AV?$TypedArray@N@23@V?$vector@_KV?$allocator@_K@std@@@std@@@Z@4HA 	 DATA
	?$TSS0@?1???$createArray@VArray@data@matlab@@@ArrayFactory@data@matlab@@QEAA?AV?$TypedArray@VArray@data@matlab@@@23@V?$vector@_KV?$allocator@_K@std@@@std@@@Z@4HA 	 DATA
	?$TSS0@?1???$createTempRef@N$00@?$TypedIterator@$$CBN@data@matlab@@AEAAPEANV?$shared_ptr@VIteratorImpl@detail@data@matlab@@@std@@@Z@4HA 	 DATA
	?$TSS0@?1???$createTempRef@N$0A@@?$TypedIterator@N@data@matlab@@AEAAPEANV?$shared_ptr@VIteratorImpl@detail@data@matlab@@@std@@@Z@4HA 	 DATA
	?$TSS0@?1???$get_static_exception_object@Ubad_alloc_@exception_detail@mwboost@@@exception_detail@mwboost@@YA?AVexception_ptr@2@XZ@4HA 	 DATA
	?$TSS0@?1???$get_static_exception_object@Ubad_exception_@exception_detail@mwboost@@@exception_detail@mwboost@@YA?AVexception_ptr@2@XZ@4HA 	 DATA
	?$TSS0@?1???$setElement@VArray@data@matlab@@@detail@data@matlab@@YAXPEAVReferenceImpl@123@VArray@23@H@Z@4HA 	 DATA
	?$TSS0@?1???0?$TypedArray@N@data@matlab@@QEAA@$$QEAVArray@23@@Z@4HA 	 DATA
	?$TSS0@?1???0?$TypedArray@VArray@data@matlab@@@data@matlab@@QEAA@$$QEAVArray@23@@Z@4HA 	 DATA
	?$TSS0@?1???0?$TypedArray@VStruct@data@matlab@@@data@matlab@@QEAA@$$QEAVArray@23@@Z@4HA 	 DATA
	?$TSS0@?1???0ArrayFactory@data@matlab@@QEAA@XZ@4HA 	 DATA
	?$TSS0@?1???A?$ArrayElementTypedRef@VStruct@data@matlab@@$0A@@data@matlab@@QEAA?AV?$ArrayElementTypedRef@VArray@data@matlab@@$0A@@23@V?$basic_string@DU?$char_traits@D@std@@V?$allocator@D@2@@std@@@Z@4HA 	 DATA
	?$TSS0@?1???A?$TypedArray@VArray@data@matlab@@@data@matlab@@QEAA?AV?$ArrayElementTypedRef@VArray@data@matlab@@$0A@@23@_K@Z@4HA 	 DATA
	?$TSS0@?1???A?$TypedArray@VArray@data@matlab@@@data@matlab@@QEBA?AV?$ArrayElementTypedRef@VArray@data@matlab@@$00@23@_K@Z@4HA 	 DATA
	?$TSS0@?1???A?$TypedArray@VStruct@data@matlab@@@data@matlab@@QEAA?AV?$ArrayElementTypedRef@VStruct@data@matlab@@$0A@@23@_K@Z@4HA 	 DATA
	?$TSS0@?1???A?$TypedArray@VStruct@data@matlab@@@data@matlab@@QEBA?AV?$ArrayElementTypedRef@VStruct@data@matlab@@$00@23@_K@Z@4HA 	 DATA
	?$TSS0@?1???AStruct@data@matlab@@QEBA?AVArray@23@V?$basic_string@DU?$char_traits@D@std@@V?$allocator@D@2@@std@@@Z@4HA 	 DATA
	?$TSS0@?1???R<lambda_18bde30140702ba20a566c9dc393b8c0>@@QEBA@PEAVArrayImpl@impl@data@matlab@@@Z@4HA 	 DATA
	?$TSS0@?1???R<lambda_2338e59a205dcd23a85a74566c35c54c>@@QEBA@PEAVIteratorImpl@detail@data@matlab@@@Z@4HA 	 DATA
	?$TSS0@?1???R<lambda_2615407b98e1f3a14023b76f0dedc381>@@QEBA@PEAVReferenceImpl@detail@data@matlab@@@Z@4HA 	 DATA
	?$TSS0@?1???R<lambda_49bc69670bef5877f460780ec06c4b58>@@QEBA@PEAVArrayImpl@impl@data@matlab@@@Z@4HA 	 DATA
	?$TSS0@?1???R<lambda_5f4fcb290926e6b66c490376dc93f8ff>@@QEBA@PEAVIteratorImpl@detail@data@matlab@@@Z@4HA 	 DATA
	?$TSS0@?1???R<lambda_7221354e2161a523b28f93cf96116df6>@@QEBA@PEAVArrayImpl@impl@data@matlab@@@Z@4HA 	 DATA
	?$TSS0@?1???R<lambda_7b2e123050acc360989b02063f1710cc>@@QEBA@PEAVIteratorImpl@detail@data@matlab@@@Z@4HA 	 DATA
	?$TSS0@?1???R<lambda_8717c4bee2934487c85bc1f9f4a10ac1>@@QEBA@PEAVArrayImpl@impl@data@matlab@@@Z@4HA 	 DATA
	?$TSS0@?1???R<lambda_9f3a4d0362104a3bede0405fafec76e1>@@QEBA@PEAVNameListImpl@detail@data@matlab@@@Z@4HA 	 DATA
	?$TSS0@?1???R<lambda_a4c5f97d4391fb4c09103a727c16defd>@@QEBA@PEAVArrayFactoryImpl@impl@data@matlab@@@Z@4HA 	 DATA
	?$TSS0@?1???R<lambda_e914d30eff449a87d58ddc0a6ee00afb>@@QEBA@PEAVArrayImpl@impl@data@matlab@@@Z@4HA 	 DATA
	?$TSS0@?1???R<lambda_f604b6d186b888d49827c9591affdc3a>@@QEBA@PEAVIteratorImpl@detail@data@matlab@@@Z@4HA 	 DATA
	?$TSS0@?1??begin@?$TypedArray@N@data@matlab@@QEAA?AV?$TypedIterator@N@34@XZ@4HA 	 DATA
	?$TSS0@?1??begin@?$TypedArray@N@data@matlab@@QEBA?AV?$TypedIterator@$$CBN@34@XZ@4HA 	 DATA
	?$TSS0@?1??createCharArray@ArrayFactory@data@matlab@@QEAA?AVCharArray@34@AEBV?$basic_string@DU?$char_traits@D@std@@V?$allocator@D@2@@std@@@Z@4HA 	 DATA
	?$TSS0@?1??createStructArray@ArrayFactory@data@matlab@@QEAA?AVStructArray@34@V?$vector@_KV?$allocator@_K@std@@@std@@V?$vector@V?$basic_string@DU?$char_traits@D@std@@V?$allocator@D@2@@std@@V?$allocator@V?$basic_string@DU?$char_traits@D@std@@V?$allocator@D@2@@std@@@2@@7@@Z@4HA 	 DATA
	?$TSS0@?1??end@?$TypedArray@N@data@matlab@@QEAA?AV?$TypedIterator@N@34@XZ@4HA 	 DATA
	?$TSS0@?1??getDimensions@Array@data@matlab@@QEBA?AV?$vector@_KV?$allocator@_K@std@@@std@@XZ@4HA 	 DATA
	?$TSS0@?1??getMemoryLayout@?$IteratorFactory@$$YColumnMajorIterator@data@matlab@@@detail@data@matlab@@CA?AW4MemoryLayout@45@AEBVArray@45@@Z@4HA 	 DATA
	?$TSS0@?1??getMemoryLayout@?$IteratorFactory@$$YRowMajorIterator@data@matlab@@@detail@data@matlab@@CA?AW4MemoryLayout@45@AEBVArray@45@@Z@4HA 	 DATA
	?$TSS0@?1??getNumberOfElements@Array@data@matlab@@QEBA_KXZ@4HA 	 DATA
	?$TSS0@?1??getType@Array@data@matlab@@QEBA?AW4ArrayType@34@XZ@4HA 	 DATA
	?$TSS0@?1??toAscii@CharArray@data@matlab@@QEBA?AV?$basic_string@DU?$char_traits@D@std@@V?$allocator@D@2@@std@@XZ@4HA 	 DATA
	?$TSS0@?4???$resolveFunction@P6AHHHPEA_N@Z@detail@data@matlab@@YAP6AHHHPEA_N@ZW4FunctionType@123@@Z@4HA 	 DATA
	?$TSS0@?4???$resolveFunction@P6AHPEAPEAVArrayFactoryImpl@impl@data@matlab@@@Z@detail@data@matlab@@YAP6AHPEAPEAVArrayFactoryImpl@impl@23@@ZW4FunctionType@123@@Z@4HA 	 DATA
	?$TSS0@?4???$resolveFunction@P6AHPEAVArrayFactoryImpl@impl@data@matlab@@HPEA_K_KPEAPEAVArrayImpl@234@@Z@detail@data@matlab@@YAP6AHPEAVArrayFactoryImpl@impl@23@HPEA_K_KPEAPEAVArrayImpl@523@@ZW4FunctionType@123@@Z@4HA 	 DATA
	?$TSS0@?4???$resolveFunction@P6AHPEAVArrayFactoryImpl@impl@data@matlab@@PEA_K_KPEAVNameListImpl@detail@34@PEAPEAVArrayImpl@234@@Z@detail@data@matlab@@YAP6AHPEAVArrayFactoryImpl@impl@23@PEA_K_KPEAVNameListImpl@123@PEAPEAVArrayImpl@523@@ZW4FunctionType@123@@Z@4HA 	 DATA
	?$TSS0@?4???$resolveFunction@P6AHPEAVArrayFactoryImpl@impl@data@matlab@@PEBD_KPEAPEAVArrayImpl@234@@Z@detail@data@matlab@@YAP6AHPEAVArrayFactoryImpl@impl@23@PEBD_KPEAPEAVArrayImpl@523@@ZW4FunctionType@123@@Z@4HA 	 DATA
	?$TSS0@?4???$resolveFunction@P6AHPEAVArrayImpl@impl@data@matlab@@PEAH@Z@detail@data@matlab@@YAP6AHPEAVArrayImpl@impl@23@PEAH@ZW4FunctionType@123@@Z@4HA 	 DATA
	?$TSS0@?4???$resolveFunction@P6AHPEAVArrayImpl@impl@data@matlab@@PEAPEB_SPEA_K@Z@detail@data@matlab@@YAP6AHPEAVArrayImpl@impl@23@PEAPEB_SPEA_K@ZW4FunctionType@123@@Z@4HA 	 DATA
	?$TSS0@?4???$resolveFunction@P6AHPEAVArrayImpl@impl@data@matlab@@_KPEAPEAVReferenceImpl@detail@34@@Z@detail@data@matlab@@YAP6AHPEAVArrayImpl@impl@23@_KPEAPEAVReferenceImpl@123@@ZW4FunctionType@123@@Z@4HA 	 DATA
	?$TSS0@?4???$resolveFunction@P6AHPEAVReferenceImpl@detail@data@matlab@@H_N@Z@detail@data@matlab@@YAP6AHPEAVReferenceImpl@123@H_N@ZW4FunctionType@123@@Z@4HA 	 DATA
	?$TSS0@?4???$resolveFunction@P6AHPEAVReferenceImpl@detail@data@matlab@@PEAVArrayImpl@impl@34@@Z@detail@data@matlab@@YAP6AHPEAVReferenceImpl@123@PEAVArrayImpl@impl@23@@ZW4FunctionType@123@@Z@4HA 	 DATA
	?$TSS0@?4???$resolveFunction@P6AHPEAVReferenceImpl@detail@data@matlab@@PEBD_K@Z@detail@data@matlab@@YAP6AHPEAVReferenceImpl@123@PEBD_K@ZW4FunctionType@123@@Z@4HA 	 DATA
	?$TSS0@?4???$resolveFunction@P6AHPEAVReferenceImpl@detail@data@matlab@@PEBD_KPEAPEAVArrayImpl@impl@34@@Z@detail@data@matlab@@YAP6AHPEAVReferenceImpl@123@PEBD_KPEAPEAVArrayImpl@impl@23@@ZW4FunctionType@123@@Z@4HA 	 DATA
	?$TSS0@?4???$resolveFunction@P6APEAVIteratorImpl@detail@data@matlab@@PEAV1234@@Z@detail@data@matlab@@YAP6APEAVIteratorImpl@123@PEAV4123@@ZW4FunctionType@123@@Z@4HA 	 DATA
	?$TSS0@?4???$resolveFunction@P6APEAVIteratorImpl@detail@data@matlab@@PEAVArrayImpl@impl@34@_N@Z@detail@data@matlab@@YAP6APEAVIteratorImpl@123@PEAVArrayImpl@impl@23@_N@ZW4FunctionType@123@@Z@4HA 	 DATA
	?$TSS0@?4???$resolveFunction@P6APEAVNameListImpl@detail@data@matlab@@_K@Z@detail@data@matlab@@YAP6APEAVNameListImpl@123@_K@ZW4FunctionType@123@@Z@4HA 	 DATA
	?$TSS0@?4???$resolveFunction@P6AXPEAVArrayFactoryImpl@impl@data@matlab@@@Z@detail@data@matlab@@YAP6AXPEAVArrayFactoryImpl@impl@23@@ZW4FunctionType@123@@Z@4HA 	 DATA
	?$TSS0@?4???$resolveFunction@P6AXPEAVArrayImpl@impl@data@matlab@@@Z@detail@data@matlab@@YAP6AXPEAVArrayImpl@impl@23@@ZW4FunctionType@123@@Z@4HA 	 DATA
	?$TSS0@?4???$resolveFunction@P6AXPEAVArrayImpl@impl@data@matlab@@PEA_KPEAPEA_K@Z@detail@data@matlab@@YAP6AXPEAVArrayImpl@impl@23@PEA_KPEAPEA_K@ZW4FunctionType@123@@Z@4HA 	 DATA
	?$TSS0@?4???$resolveFunction@P6AXPEAVIteratorImpl@detail@data@matlab@@@Z@detail@data@matlab@@YAP6AXPEAVIteratorImpl@123@@ZW4FunctionType@123@@Z@4HA 	 DATA
	?$TSS0@?4???$resolveFunction@P6AXPEAVIteratorImpl@detail@data@matlab@@PEAPEAX@Z@detail@data@matlab@@YAP6AXPEAVIteratorImpl@123@PEAPEAX@ZW4FunctionType@123@@Z@4HA 	 DATA
	?$TSS0@?4???$resolveFunction@P6AXPEAVNameListImpl@detail@data@matlab@@@Z@detail@data@matlab@@YAP6AXPEAVNameListImpl@123@@ZW4FunctionType@123@@Z@4HA 	 DATA
	?$TSS0@?4???$resolveFunction@P6AXPEAVNameListImpl@detail@data@matlab@@PEBD_K@Z@detail@data@matlab@@YAP6AXPEAVNameListImpl@123@PEBD_K@ZW4FunctionType@123@@Z@4HA 	 DATA
	?$TSS0@?4???$resolveFunction@P6AXPEAVReferenceImpl@detail@data@matlab@@@Z@detail@data@matlab@@YAP6AXPEAVReferenceImpl@123@@ZW4FunctionType@123@@Z@4HA 	 DATA
	?$TSS0@?4???$resolveFunction@P6AXPEAVReferenceImpl@detail@data@matlab@@PEAPEAVArrayImpl@impl@34@@Z@detail@data@matlab@@YAP6AXPEAVReferenceImpl@123@PEAPEAVArrayImpl@impl@23@@ZW4FunctionType@123@@Z@4HA 	 DATA
	?$TSS0@?4???$resolveFunction@P6A_KPEAVArrayImpl@impl@data@matlab@@@Z@detail@data@matlab@@YAP6A_KPEAVArrayImpl@impl@23@@ZW4FunctionType@123@@Z@4HA 	 DATA
	?$TSS0@?4???$resolveFunction@P6A_NPEAVArrayImpl@impl@data@matlab@@_NPEAPEAV1234@@Z@detail@data@matlab@@YAP6A_NPEAVArrayImpl@impl@23@_NPEAPEAV4523@@ZW4FunctionType@123@@Z@4HA 	 DATA
	?$TSS0@?4???0?$TypedIterator@$$CBN@data@matlab@@QEAA@AEBV123@@Z@4HA 	 DATA
	?$TSS0@?4???0?$TypedIterator@N@data@matlab@@QEAA@AEBV123@@Z@4HA 	 DATA
	?$TSS1@?1???$castTo@VCharArray@data@matlab@@$00@detail@data@matlab@@YA?AVCharArray@23@V?$shared_ptr@VReferenceImpl@detail@data@matlab@@@std@@@Z@4HA 	 DATA
	?$TSS1@?1???A?$TypedArray@VArray@data@matlab@@@data@matlab@@QEAA?AV?$ArrayElementTypedRef@VArray@data@matlab@@$0A@@23@_K@Z@4HA 	 DATA
	?$TSS1@?1???A?$TypedArray@VStruct@data@matlab@@@data@matlab@@QEAA?AV?$ArrayElementTypedRef@VStruct@data@matlab@@$0A@@23@_K@Z@4HA 	 DATA
	?$TSS1@?1??begin@?$TypedArray@N@data@matlab@@QEAA?AV?$TypedIterator@N@34@XZ@4HA 	 DATA
	?$TSS1@?1??end@?$TypedArray@N@data@matlab@@QEAA?AV?$TypedIterator@N@34@XZ@4HA 	 DATA
	?$TSS1@?4??begin@?$TypedArray@N@data@matlab@@QEBA?AV?$TypedIterator@$$CBN@34@XZ@4HA 	 DATA
	?$TSS2@?5??createStructArray@ArrayFactory@data@matlab@@QEAA?AVStructArray@34@V?$vector@_KV?$allocator@_K@std@@@std@@V?$vector@V?$basic_string@DU?$char_traits@D@std@@V?$allocator@D@2@@std@@V?$allocator@V?$basic_string@DU?$char_traits@D@std@@V?$allocator@D@2@@std@@@2@@7@@Z@4HA 	 DATA
	?$TSS2@?7??begin@?$TypedArray@N@data@matlab@@QEAA?AV?$TypedIterator@N@34@XZ@4HA 	 DATA
	?$TSS2@?7??end@?$TypedArray@N@data@matlab@@QEAA?AV?$TypedIterator@N@34@XZ@4HA 	 DATA
	?$TSS3@?1??createStructArray@ArrayFactory@data@matlab@@QEAA?AVStructArray@34@V?$vector@_KV?$allocator@_K@std@@@std@@V?$vector@V?$basic_string@DU?$char_traits@D@std@@V?$allocator@D@2@@std@@V?$allocator@V?$basic_string@DU?$char_traits@D@std@@V?$allocator@D@2@@std@@@2@@7@@Z@4HA 	 DATA
	??_R0?AU?$DefaultMessageCreator@U?$msg_cm_@V?$allocator@X@std@@@cm@@@ros@@@8 	 DATA
	??_R0?AU?$checked_array_deleter@E@mwboost@@@8 	 DATA
	??_R0?AU?$msg_cm_@V?$allocator@X@std@@@cm@@@8 	 DATA
	??_R0?AU?$wrapexcept@Vbad_function_call@mwboost@@@mwboost@@@8 	 DATA
	??_R0?AU?$wrapexcept@Vlock_error@mwboost@@@mwboost@@@8 	 DATA
	??_R0?AU?$wrapexcept@Vthread_resource_error@mwboost@@@mwboost@@@8 	 DATA
	??_R0?AUbad_alloc_@exception_detail@mwboost@@@8 	 DATA
	??_R0?AUbad_exception_@exception_detail@mwboost@@@8 	 DATA
	??_R0?AV<lambda_18bde30140702ba20a566c9dc393b8c0>@@@8 	 DATA
	??_R0?AV<lambda_2338e59a205dcd23a85a74566c35c54c>@@@8 	 DATA
	??_R0?AV<lambda_2615407b98e1f3a14023b76f0dedc381>@@@8 	 DATA
	??_R0?AV<lambda_49bc69670bef5877f460780ec06c4b58>@@@8 	 DATA
	??_R0?AV<lambda_5f4fcb290926e6b66c490376dc93f8ff>@@@8 	 DATA
	??_R0?AV<lambda_7221354e2161a523b28f93cf96116df6>@@@8 	 DATA
	??_R0?AV<lambda_7b2e123050acc360989b02063f1710cc>@@@8 	 DATA
	??_R0?AV<lambda_8717c4bee2934487c85bc1f9f4a10ac1>@@@8 	 DATA
	??_R0?AV<lambda_9f3a4d0362104a3bede0405fafec76e1>@@@8 	 DATA
	??_R0?AV<lambda_a4c5f97d4391fb4c09103a727c16defd>@@@8 	 DATA
	??_R0?AV<lambda_e914d30eff449a87d58ddc0a6ee00afb>@@@8 	 DATA
	??_R0?AV<lambda_f604b6d186b888d49827c9591affdc3a>@@@8 	 DATA
	??_R0?AV?$AbstractMetaObject@V?$MATLABROSMsgInterface@U?$Header_@V?$allocator@X@std@@@std_msgs@@@@@impl@ros1_class_loader@@@8 	 DATA
	??_R0?AV?$AbstractMetaObject@V?$MATLABROSMsgInterface@U?$msg_cm_@V?$allocator@X@std@@@cm@@@@@impl@ros1_class_loader@@@8 	 DATA
	??_R0?AV?$AbstractMetaObject@VROSMsgElementInterfaceFactory@@@impl@ros1_class_loader@@@8 	 DATA
	??_R0?AV?$ArrayException@VException@matlab@@$00@detail@data@matlab@@@8 	 DATA
	??_R0?AV?$ArrayException@VException@matlab@@$01@detail@data@matlab@@@8 	 DATA
	??_R0?AV?$ArrayException@VException@matlab@@$02@detail@data@matlab@@@8 	 DATA
	??_R0?AV?$ArrayException@VException@matlab@@$04@detail@data@matlab@@@8 	 DATA
	??_R0?AV?$ArrayException@VException@matlab@@$05@detail@data@matlab@@@8 	 DATA
	??_R0?AV?$ArrayException@VException@matlab@@$06@detail@data@matlab@@@8 	 DATA
	??_R0?AV?$ArrayException@VException@matlab@@$07@detail@data@matlab@@@8 	 DATA
	??_R0?AV?$ArrayException@VException@matlab@@$08@detail@data@matlab@@@8 	 DATA
	??_R0?AV?$ArrayException@VException@matlab@@$09@detail@data@matlab@@@8 	 DATA
	??_R0?AV?$ArrayException@VException@matlab@@$0BA@@detail@data@matlab@@@8 	 DATA
	??_R0?AV?$ArrayException@VException@matlab@@$0BB@@detail@data@matlab@@@8 	 DATA
	??_R0?AV?$ArrayException@VException@matlab@@$0BC@@detail@data@matlab@@@8 	 DATA
	??_R0?AV?$ArrayException@VException@matlab@@$0BD@@detail@data@matlab@@@8 	 DATA
	??_R0?AV?$ArrayException@VException@matlab@@$0BE@@detail@data@matlab@@@8 	 DATA
	??_R0?AV?$ArrayException@VException@matlab@@$0BF@@detail@data@matlab@@@8 	 DATA
	??_R0?AV?$ArrayException@VException@matlab@@$0BG@@detail@data@matlab@@@8 	 DATA
	??_R0?AV?$ArrayException@VException@matlab@@$0BH@@detail@data@matlab@@@8 	 DATA
	??_R0?AV?$ArrayException@VException@matlab@@$0BI@@detail@data@matlab@@@8 	 DATA
	??_R0?AV?$ArrayException@VException@matlab@@$0BJ@@detail@data@matlab@@@8 	 DATA
	??_R0?AV?$ArrayException@VException@matlab@@$0BK@@detail@data@matlab@@@8 	 DATA
	??_R0?AV?$ArrayException@VException@matlab@@$0BL@@detail@data@matlab@@@8 	 DATA
	??_R0?AV?$ArrayException@VException@matlab@@$0BM@@detail@data@matlab@@@8 	 DATA
	??_R0?AV?$ArrayException@VException@matlab@@$0BN@@detail@data@matlab@@@8 	 DATA
	??_R0?AV?$ArrayException@VException@matlab@@$0BO@@detail@data@matlab@@@8 	 DATA
	??_R0?AV?$ArrayException@VException@matlab@@$0BP@@detail@data@matlab@@@8 	 DATA
	??_R0?AV?$ArrayException@VException@matlab@@$0CA@@detail@data@matlab@@@8 	 DATA
	??_R0?AV?$ArrayException@VException@matlab@@$0CB@@detail@data@matlab@@@8 	 DATA
	??_R0?AV?$ArrayException@VException@matlab@@$0CC@@detail@data@matlab@@@8 	 DATA
	??_R0?AV?$ArrayException@VException@matlab@@$0CD@@detail@data@matlab@@@8 	 DATA
	??_R0?AV?$ArrayException@VException@matlab@@$0CE@@detail@data@matlab@@@8 	 DATA
	??_R0?AV?$ArrayException@VException@matlab@@$0CF@@detail@data@matlab@@@8 	 DATA
	??_R0?AV?$ArrayException@VException@matlab@@$0CG@@detail@data@matlab@@@8 	 DATA
	??_R0?AV?$ArrayException@VException@matlab@@$0CH@@detail@data@matlab@@@8 	 DATA
	??_R0?AV?$ArrayException@VException@matlab@@$0CI@@detail@data@matlab@@@8 	 DATA
	??_R0?AV?$ArrayException@VException@matlab@@$0CJ@@detail@data@matlab@@@8 	 DATA
	??_R0?AV?$ArrayException@VException@matlab@@$0CK@@detail@data@matlab@@@8 	 DATA
	??_R0?AV?$ArrayException@VException@matlab@@$0CL@@detail@data@matlab@@@8 	 DATA
	??_R0?AV?$ArrayException@VException@matlab@@$0CM@@detail@data@matlab@@@8 	 DATA
	??_R0?AV?$ArrayException@VException@matlab@@$0CN@@detail@data@matlab@@@8 	 DATA
	??_R0?AV?$ArrayException@VException@matlab@@$0CO@@detail@data@matlab@@@8 	 DATA
	??_R0?AV?$ArrayException@VException@matlab@@$0CP@@detail@data@matlab@@@8 	 DATA
	??_R0?AV?$ArrayException@VException@matlab@@$0DD@@detail@data@matlab@@@8 	 DATA
	??_R0?AV?$ArrayException@VException@matlab@@$0L@@detail@data@matlab@@@8 	 DATA
	??_R0?AV?$ArrayException@VException@matlab@@$0M@@detail@data@matlab@@@8 	 DATA
	??_R0?AV?$ArrayException@VException@matlab@@$0N@@detail@data@matlab@@@8 	 DATA
	??_R0?AV?$ArrayException@VException@matlab@@$0O@@detail@data@matlab@@@8 	 DATA
	??_R0?AV?$ArrayException@VException@matlab@@$0P@@detail@data@matlab@@@8 	 DATA
	??_R0?AV?$MATLABROSMsgInterface@U?$Header_@V?$allocator@X@std@@@std_msgs@@@@@8 	 DATA
	??_R0?AV?$MATLABROSMsgInterface@U?$msg_cm_@V?$allocator@X@std@@@cm@@@@@8 	 DATA
	??_R0?AV?$MetaObject@Vcm_msg_cm_message@@VROSMsgElementInterfaceFactory@@@impl@ros1_class_loader@@@8 	 DATA
	??_R0?AV?$MetaObject@Vcm_msg_msg_cm_common@@V?$MATLABROSMsgInterface@U?$msg_cm_@V?$allocator@X@std@@@cm@@@@@impl@ros1_class_loader@@@8 	 DATA
	??_R0?AV?$ROSBagWriterImpl@U?$msg_cm_@V?$allocator@X@std@@@cm@@Vcm_msg_msg_cm_common@@@@@8 	 DATA
	??_R0?AV?$ROSPublisherImpl@U?$msg_cm_@V?$allocator@X@std@@@cm@@Vcm_msg_msg_cm_common@@@@@8 	 DATA
	??_R0?AV?$ROSSubscriberImpl@U?$msg_cm_@V?$allocator@X@std@@@cm@@V?$shared_ptr@$$CBU?$msg_cm_@V?$allocator@X@std@@@cm@@@mwboost@@Vcm_msg_msg_cm_common@@@@@8 	 DATA
	??_R0?AV?$SubscriptionCallbackHelperT@AEBV?$shared_ptr@$$CBU?$msg_cm_@V?$allocator@X@std@@@cm@@@mwboost@@X@ros@@@8 	 DATA
	??_R0?AV?$TypedArray@N@data@matlab@@@8 	 DATA
	??_R0?AV?$TypedArray@VArray@data@matlab@@@data@matlab@@@8 	 DATA
	??_R0?AV?$TypedArray@VStruct@data@matlab@@@data@matlab@@@8 	 DATA
	??_R0?AV?$TypedArray@_S@data@matlab@@@8 	 DATA
	??_R0?AV?$_Ref_count_obj2@V?$ROSBagWriterImpl@U?$msg_cm_@V?$allocator@X@std@@@cm@@Vcm_msg_msg_cm_common@@@@@std@@@8 	 DATA
	??_R0?AV?$_Ref_count_obj2@V?$ROSPublisherImpl@U?$msg_cm_@V?$allocator@X@std@@@cm@@Vcm_msg_msg_cm_common@@@@@std@@@8 	 DATA
	??_R0?AV?$_Ref_count_obj2@V?$ROSSubscriberImpl@U?$msg_cm_@V?$allocator@X@std@@@cm@@V?$shared_ptr@$$CBU?$msg_cm_@V?$allocator@X@std@@@cm@@@mwboost@@Vcm_msg_msg_cm_common@@@@@std@@@8 	 DATA
	??_R0?AV?$_Ref_count_obj2@VPublisher@ros@@@std@@@8 	 DATA
	??_R0?AV?$_Ref_count_obj2@VSubscriber@ros@@@std@@@8 	 DATA
	??_R0?AV?$_Ref_count_resource@PEAVArrayFactoryImpl@impl@data@matlab@@V<lambda_a4c5f97d4391fb4c09103a727c16defd>@@@std@@@8 	 DATA
	??_R0?AV?$_Ref_count_resource@PEAVArrayImpl@impl@data@matlab@@V<lambda_18bde30140702ba20a566c9dc393b8c0>@@@std@@@8 	 DATA
	??_R0?AV?$_Ref_count_resource@PEAVArrayImpl@impl@data@matlab@@V<lambda_49bc69670bef5877f460780ec06c4b58>@@@std@@@8 	 DATA
	??_R0?AV?$_Ref_count_resource@PEAVArrayImpl@impl@data@matlab@@V<lambda_7221354e2161a523b28f93cf96116df6>@@@std@@@8 	 DATA
	??_R0?AV?$_Ref_count_resource@PEAVArrayImpl@impl@data@matlab@@V<lambda_8717c4bee2934487c85bc1f9f4a10ac1>@@@std@@@8 	 DATA
	??_R0?AV?$_Ref_count_resource@PEAVArrayImpl@impl@data@matlab@@V<lambda_e914d30eff449a87d58ddc0a6ee00afb>@@@std@@@8 	 DATA
	??_R0?AV?$_Ref_count_resource@PEAVIteratorImpl@detail@data@matlab@@V<lambda_2338e59a205dcd23a85a74566c35c54c>@@@std@@@8 	 DATA
	??_R0?AV?$_Ref_count_resource@PEAVIteratorImpl@detail@data@matlab@@V<lambda_5f4fcb290926e6b66c490376dc93f8ff>@@@std@@@8 	 DATA
	??_R0?AV?$_Ref_count_resource@PEAVIteratorImpl@detail@data@matlab@@V<lambda_7b2e123050acc360989b02063f1710cc>@@@std@@@8 	 DATA
	??_R0?AV?$_Ref_count_resource@PEAVIteratorImpl@detail@data@matlab@@V<lambda_f604b6d186b888d49827c9591affdc3a>@@@std@@@8 	 DATA
	??_R0?AV?$_Ref_count_resource@PEAVNameListImpl@detail@data@matlab@@V<lambda_9f3a4d0362104a3bede0405fafec76e1>@@@std@@@8 	 DATA
	??_R0?AV?$_Ref_count_resource@PEAVReferenceImpl@detail@data@matlab@@V<lambda_2615407b98e1f3a14023b76f0dedc381>@@@std@@@8 	 DATA
	??_R0?AV?$bind_t@VSerializedMessage@ros@@P6A?AV12@AEBU?$msg_cm_@V?$allocator@X@std@@@cm@@@ZV?$list1@V?$reference_wrapper@U?$msg_cm_@V?$allocator@X@std@@@cm@@@mwboost@@@_bi@mwboost@@@_bi@mwboost@@@8 	 DATA
	??_R0?AV?$bind_t@XV?$mf1@XV?$ROSSubscriberImpl@U?$msg_cm_@V?$allocator@X@std@@@cm@@V?$shared_ptr@$$CBU?$msg_cm_@V?$allocator@X@std@@@cm@@@mwboost@@Vcm_msg_msg_cm_common@@@@AEBV?$shared_ptr@$$CBU?$msg_cm_@V?$allocator@X@std@@@cm@@@mwboost@@@_mfi@mwboost@@V?$list2@V?$value@PEAV?$ROSSubscriberImpl@U?$msg_cm_@V?$allocator@X@std@@@cm@@V?$shared_ptr@$$CBU?$msg_cm_@V?$allocator@X@std@@@cm@@@mwboost@@Vcm_msg_msg_cm_common@@@@@_bi@mwboost@@U?$arg@$00@3@@_bi@3@@_bi@mwboost@@@8 	 DATA
	??_R0?AV?$bind_t@XV?$mf1@XVClassLoader@ros1_class_loader@@PEAV?$MATLABROSMsgInterface@U?$Header_@V?$allocator@X@std@@@std_msgs@@@@@_mfi@mwboost@@V?$list2@V?$value@PEAVClassLoader@ros1_class_loader@@@_bi@mwboost@@U?$arg@$00@3@@_bi@3@@_bi@mwboost@@@8 	 DATA
	??_R0?AV?$clone_impl@Ubad_alloc_@exception_detail@mwboost@@@exception_detail@mwboost@@@8 	 DATA
	??_R0?AV?$clone_impl@Ubad_exception_@exception_detail@mwboost@@@exception_detail@mwboost@@@8 	 DATA
	??_R0?AV?$function@$$A6AXAEBV?$shared_ptr@$$CBU?$msg_cm_@V?$allocator@X@std@@@cm@@@mwboost@@@Z@mwboost@@@8 	 DATA
	??_R0?AV?$sp_counted_impl_p@V?$clone_impl@Ubad_alloc_@exception_detail@mwboost@@@exception_detail@mwboost@@@detail@mwboost@@@8 	 DATA
	??_R0?AV?$sp_counted_impl_p@V?$clone_impl@Ubad_exception_@exception_detail@mwboost@@@exception_detail@mwboost@@@detail@mwboost@@@8 	 DATA
	??_R0?AV?$sp_counted_impl_pd@PEAEU?$checked_array_deleter@E@mwboost@@@detail@mwboost@@@8 	 DATA
	??_R0?AV?$sp_counted_impl_pd@PEAU?$msg_cm_@V?$allocator@X@std@@@cm@@V?$sp_ms_deleter@U?$msg_cm_@V?$allocator@X@std@@@cm@@@detail@mwboost@@@detail@mwboost@@@8 	 DATA
	??_R0?AV?$sp_counted_impl_pd@PEAV?$MATLABROSMsgInterface@U?$Header_@V?$allocator@X@std@@@std_msgs@@@@V?$bind_t@XV?$mf1@XVClassLoader@ros1_class_loader@@PEAV?$MATLABROSMsgInterface@U?$Header_@V?$allocator@X@std@@@std_msgs@@@@@_mfi@mwboost@@V?$list2@V?$value@PEAVClassLoader@ros1_class_loader@@@_bi@mwboost@@U?$arg@$00@3@@_bi@3@@_bi@mwboost@@@detail@mwboost@@@8 	 DATA
	??_R0?AV?$sp_counted_impl_pd@PEAV?$SubscriptionCallbackHelperT@AEBV?$shared_ptr@$$CBU?$msg_cm_@V?$allocator@X@std@@@cm@@@mwboost@@X@ros@@V?$sp_ms_deleter@V?$SubscriptionCallbackHelperT@AEBV?$shared_ptr@$$CBU?$msg_cm_@V?$allocator@X@std@@@cm@@@mwboost@@X@ros@@@detail@mwboost@@@detail@mwboost@@@8 	 DATA
	??_R0?AV?$sp_counted_impl_pd@PEAV?$map@V?$basic_string@DU?$char_traits@D@std@@V?$allocator@D@2@@std@@V12@U?$less@V?$basic_string@DU?$char_traits@D@std@@V?$allocator@D@2@@std@@@2@V?$allocator@U?$pair@$$CBV?$basic_string@DU?$char_traits@D@std@@V?$allocator@D@2@@std@@V12@@std@@@2@@std@@V?$sp_ms_deleter@V?$map@V?$basic_string@DU?$char_traits@D@std@@V?$allocator@D@2@@std@@V12@U?$less@V?$basic_string@DU?$char_traits@D@std@@V?$allocator@D@2@@std@@@2@V?$allocator@U?$pair@$$CBV?$basic_string@DU?$char_traits@D@std@@V?$allocator@D@2@@std@@V12@@std@@@2@@std@@@detail@mwboost@@@detail@mwboost@@@8 	 DATA
	??_R0?AV?$sp_ms_deleter@U?$msg_cm_@V?$allocator@X@std@@@cm@@@detail@mwboost@@@8 	 DATA
	??_R0?AV?$sp_ms_deleter@V?$SubscriptionCallbackHelperT@AEBV?$shared_ptr@$$CBU?$msg_cm_@V?$allocator@X@std@@@cm@@@mwboost@@X@ros@@@detail@mwboost@@@8 	 DATA
	??_R0?AV?$sp_ms_deleter@V?$map@V?$basic_string@DU?$char_traits@D@std@@V?$allocator@D@2@@std@@V12@U?$less@V?$basic_string@DU?$char_traits@D@std@@V?$allocator@D@2@@std@@@2@V?$allocator@U?$pair@$$CBV?$basic_string@DU?$char_traits@D@std@@V?$allocator@D@2@@std@@V12@@std@@@2@@std@@@detail@mwboost@@@8 	 DATA
	??_R0?AVAbstractMetaObjectBase@impl@ros1_class_loader@@@8 	 DATA
	??_R0?AVArray@data@matlab@@@8 	 DATA
	??_R0?AVBagException@rosbag@@@8 	 DATA
	??_R0?AVCharArray@data@matlab@@@8 	 DATA
	??_R0?AVClassLoaderException@ros1_class_loader@@@8 	 DATA
	??_R0?AVCreateClassException@ros1_class_loader@@@8 	 DATA
	??_R0?AVException@matlab@@@8 	 DATA
	??_R0?AVException@ros@@@8 	 DATA
	??_R0?AVMATLABPublisherInterface@@@8 	 DATA
	??_R0?AVMATLABROSMsgInterfaceBase@@@8 	 DATA
	??_R0?AVMATLABRosbagWriterInterface@@@8 	 DATA
	??_R0?AVMATLABSubscriberInterface@@@8 	 DATA
	??_R0?AVROSMsgElementInterfaceFactory@@@8 	 DATA
	??_R0?AVStructArray@data@matlab@@@8 	 DATA
	??_R0?AVSubscriptionCallbackHelper@ros@@@8 	 DATA
	??_R0?AV_Ref_count_base@std@@@8 	 DATA
	??_R0?AVbad_alloc@std@@@8 	 DATA
	??_R0?AVbad_array_new_length@std@@@8 	 DATA
	??_R0?AVbad_exception@std@@@8 	 DATA
	??_R0?AVbad_function_call@mwboost@@@8 	 DATA
	??_R0?AVclone_base@exception_detail@mwboost@@@8 	 DATA
	??_R0?AVcm_msg_cm_message@@@8 	 DATA
	??_R0?AVcm_msg_msg_cm_common@@@8 	 DATA
	??_R0?AVerror_category@system@mwboost@@@8 	 DATA
	??_R0?AVexception@mwboost@@@8 	 DATA
	??_R0?AVexception@std@@@8 	 DATA
	??_R0?AVgeneric_error_category@detail@system@mwboost@@@8 	 DATA
	??_R0?AVinterop_error_category@detail@system@mwboost@@@8 	 DATA
	??_R0?AVinvalid_argument@std@@@8 	 DATA
	??_R0?AVlock_error@mwboost@@@8 	 DATA
	??_R0?AVlogic_error@std@@@8 	 DATA
	??_R0?AVruntime_error@std@@@8 	 DATA
	??_R0?AVsp_counted_base@detail@mwboost@@@8 	 DATA
	??_R0?AVsystem_error@system@mwboost@@@8 	 DATA
	??_R0?AVsystem_error_category@detail@system@mwboost@@@8 	 DATA
	??_R0?AVthread_exception@mwboost@@@8 	 DATA
	??_R0?AVthread_resource_error@mwboost@@@8 	 DATA
	??_R0PEAV?$MATLABROSMsgInterface@U?$Header_@V?$allocator@X@std@@@std_msgs@@@@@8 	 DATA
	?_OptionsStorage@?1??__local_stdio_printf_options@@9@4_KA 	 DATA
	?__rosconsole_define_location__loc@?6??deserialize@?$SubscriptionCallbackHelperT@AEBV?$shared_ptr@$$CBU?$msg_cm_@V?$allocator@X@std@@@cm@@@mwboost@@X@ros@@UEAA?AV?$shared_ptr@$$CBX@mwboost@@AEBUSubscriptionCallbackHelperDeserializeParams@3@@Z@4ULogLocation@console@3@A 	 DATA
	?__rosconsole_define_location__loc@?N@???$publish@U?$msg_cm_@V?$allocator@X@std@@@cm@@@Publisher@ros@@QEBAXAEBV?$shared_ptr@U?$msg_cm_@V?$allocator@X@std@@@cm@@@mwboost@@@Z@4ULogLocation@console@2@A 	 DATA
	?destroyFcn@?1???R<lambda_9f3a4d0362104a3bede0405fafec76e1>@@QEBA@PEAVNameListImpl@detail@data@matlab@@@Z@4Q6AX0@ZEA 	 DATA
	?destroyFcn@?1???R<lambda_a4c5f97d4391fb4c09103a727c16defd>@@QEBA@PEAVArrayFactoryImpl@impl@data@matlab@@@Z@4Q6AX0@ZEA 	 DATA
	?e@?$exception_ptr_static_exception_object@Ubad_alloc_@exception_detail@mwboost@@@exception_detail@mwboost@@2Vexception_ptr@3@B 	 DATA
	?e@?$exception_ptr_static_exception_object@Ubad_exception_@exception_detail@mwboost@@@exception_detail@mwboost@@2Vexception_ptr@3@B 	 DATA
	?ep@?1???$get_static_exception_object@Ubad_alloc_@exception_detail@mwboost@@@exception_detail@mwboost@@YA?AVexception_ptr@2@XZ@4V32@A 	 DATA
	?ep@?1???$get_static_exception_object@Ubad_exception_@exception_detail@mwboost@@@exception_detail@mwboost@@YA?AVexception_ptr@2@XZ@4V32@A 	 DATA
	?fcn2@?1???$castTo@VCharArray@data@matlab@@$00@detail@data@matlab@@YA?AVCharArray@23@V?$shared_ptr@VReferenceImpl@detail@data@matlab@@@std@@@Z@4Q6AHPEAVReferenceImpl@123@H_N@ZEA 	 DATA
	?fcn2@?1???R<lambda_18bde30140702ba20a566c9dc393b8c0>@@QEBA@PEAVArrayImpl@impl@data@matlab@@@Z@4Q6AX0@ZEA 	 DATA
	?fcn2@?1???R<lambda_2338e59a205dcd23a85a74566c35c54c>@@QEBA@PEAVIteratorImpl@detail@data@matlab@@@Z@4Q6AX0@ZEA 	 DATA
	?fcn2@?1???R<lambda_2615407b98e1f3a14023b76f0dedc381>@@QEBA@PEAVReferenceImpl@detail@data@matlab@@@Z@4Q6AX0@ZEA 	 DATA
	?fcn2@?1???R<lambda_49bc69670bef5877f460780ec06c4b58>@@QEBA@PEAVArrayImpl@impl@data@matlab@@@Z@4Q6AX0@ZEA 	 DATA
	?fcn2@?1???R<lambda_5f4fcb290926e6b66c490376dc93f8ff>@@QEBA@PEAVIteratorImpl@detail@data@matlab@@@Z@4Q6AX0@ZEA 	 DATA
	?fcn2@?1???R<lambda_7221354e2161a523b28f93cf96116df6>@@QEBA@PEAVArrayImpl@impl@data@matlab@@@Z@4Q6AX0@ZEA 	 DATA
	?fcn2@?1???R<lambda_7b2e123050acc360989b02063f1710cc>@@QEBA@PEAVIteratorImpl@detail@data@matlab@@@Z@4Q6AX0@ZEA 	 DATA
	?fcn2@?1???R<lambda_8717c4bee2934487c85bc1f9f4a10ac1>@@QEBA@PEAVArrayImpl@impl@data@matlab@@@Z@4Q6AX0@ZEA 	 DATA
	?fcn2@?1???R<lambda_e914d30eff449a87d58ddc0a6ee00afb>@@QEBA@PEAVArrayImpl@impl@data@matlab@@@Z@4Q6AX0@ZEA 	 DATA
	?fcn2@?1???R<lambda_f604b6d186b888d49827c9591affdc3a>@@QEBA@PEAVIteratorImpl@detail@data@matlab@@@Z@4Q6AX0@ZEA 	 DATA
	?fcn2@?1??createStructArray@ArrayFactory@data@matlab@@QEAA?AVStructArray@34@V?$vector@_KV?$allocator@_K@std@@@std@@V?$vector@V?$basic_string@DU?$char_traits@D@std@@V?$allocator@D@2@@std@@V?$allocator@V?$basic_string@DU?$char_traits@D@std@@V?$allocator@D@2@@std@@@2@@7@@Z@4Q6AHPEAVArrayFactoryImpl@impl@34@PEA_K_KPEAVNameListImpl@detail@34@PEAPEAVArrayImpl@impl@34@@ZEA 	 DATA
	?fcn2@?4??begin@?$TypedArray@N@data@matlab@@QEBA?AV?$TypedIterator@$$CBN@34@XZ@4Q6APEAVIteratorImpl@detail@34@PEAVArrayImpl@impl@34@_N@ZEA 	 DATA
	?fcn3@?1???A?$TypedArray@VArray@data@matlab@@@data@matlab@@QEAA?AV?$ArrayElementTypedRef@VArray@data@matlab@@$0A@@23@_K@Z@4Q6AHPEAVArrayImpl@impl@23@0PEAPEAVReferenceImpl@detail@23@@ZEA 	 DATA
	?fcn3@?1???A?$TypedArray@VStruct@data@matlab@@@data@matlab@@QEAA?AV?$ArrayElementTypedRef@VStruct@data@matlab@@$0A@@23@_K@Z@4Q6AHPEAVArrayImpl@impl@23@0PEAPEAVReferenceImpl@detail@23@@ZEA 	 DATA
	?fcn3@?1??begin@?$TypedArray@N@data@matlab@@QEAA?AV?$TypedIterator@N@34@XZ@4Q6APEAVIteratorImpl@detail@34@PEAVArrayImpl@impl@34@_N@ZEA 	 DATA
	?fcn3@?1??createStructArray@ArrayFactory@data@matlab@@QEAA?AVStructArray@34@V?$vector@_KV?$allocator@_K@std@@@std@@V?$vector@V?$basic_string@DU?$char_traits@D@std@@V?$allocator@D@2@@std@@V?$allocator@V?$basic_string@DU?$char_traits@D@std@@V?$allocator@D@2@@std@@@2@@7@@Z@4Q6APEAVNameListImpl@detail@34@_K@ZEA 	 DATA
	?fcn3@?1??end@?$TypedArray@N@data@matlab@@QEAA?AV?$TypedIterator@N@34@XZ@4Q6APEAVIteratorImpl@detail@34@PEAVArrayImpl@impl@34@_N@ZEA 	 DATA
	?fcn4@?7??begin@?$TypedArray@N@data@matlab@@QEAA?AV?$TypedIterator@N@34@XZ@4Q6APEAVIteratorImpl@detail@34@PEAVArrayImpl@impl@34@_N@ZEA 	 DATA
	?fcn4@?7??end@?$TypedArray@N@data@matlab@@QEAA?AV?$TypedIterator@N@34@XZ@4Q6APEAVIteratorImpl@detail@34@PEAVArrayImpl@impl@34@_N@ZEA 	 DATA
	?fcn@?1???$castTo@VCharArray@data@matlab@@$00@detail@data@matlab@@YA?AVCharArray@23@V?$shared_ptr@VReferenceImpl@detail@data@matlab@@@std@@@Z@4Q6AXPEAVReferenceImpl@123@PEAPEAVArrayImpl@impl@23@@ZEA 	 DATA
	?fcn@?1???$createArray@N@ArrayFactory@data@matlab@@QEAA?AV?$TypedArray@N@23@V?$vector@_KV?$allocator@_K@std@@@std@@@Z@4Q6AHPEAVArrayFactoryImpl@impl@23@HPEA_K_KPEAPEAVArrayImpl@823@@ZEA 	 DATA
	?fcn@?1???$createArray@VArray@data@matlab@@@ArrayFactory@data@matlab@@QEAA?AV?$TypedArray@VArray@data@matlab@@@23@V?$vector@_KV?$allocator@_K@std@@@std@@@Z@4Q6AHPEAVArrayFactoryImpl@impl@23@HPEA_K_KPEAPEAVArrayImpl@823@@ZEA 	 DATA
	?fcn@?1???$createTempRef@N$00@?$TypedIterator@$$CBN@data@matlab@@AEAAPEANV?$shared_ptr@VIteratorImpl@detail@data@matlab@@@std@@@Z@4Q6AXPEAVIteratorImpl@detail@23@PEAPEAX@ZEA 	 DATA
	?fcn@?1???$createTempRef@N$0A@@?$TypedIterator@N@data@matlab@@AEAAPEANV?$shared_ptr@VIteratorImpl@detail@data@matlab@@@std@@@Z@4Q6AXPEAVIteratorImpl@detail@23@PEAPEAX@ZEA 	 DATA
	?fcn@?1???$setElement@VArray@data@matlab@@@detail@data@matlab@@YAXPEAVReferenceImpl@123@VArray@23@H@Z@4Q6AH0PEAVArrayImpl@impl@23@@ZEA 	 DATA
	?fcn@?1???0?$TypedArray@N@data@matlab@@QEAA@$$QEAVArray@23@@Z@4Q6AHHHPEA_N@ZEA 	 DATA
	?fcn@?1???0?$TypedArray@VArray@data@matlab@@@data@matlab@@QEAA@$$QEAVArray@23@@Z@4Q6AHHHPEA_N@ZEA 	 DATA
	?fcn@?1???0?$TypedArray@VStruct@data@matlab@@@data@matlab@@QEAA@$$QEAVArray@23@@Z@4Q6AHHHPEA_N@ZEA 	 DATA
	?fcn@?1???0ArrayFactory@data@matlab@@QEAA@XZ@4Q6AHPEAPEAVArrayFactoryImpl@impl@23@@ZEA 	 DATA
	?fcn@?1???A?$ArrayElementTypedRef@VStruct@data@matlab@@$0A@@data@matlab@@QEAA?AV?$ArrayElementTypedRef@VArray@data@matlab@@$0A@@23@V?$basic_string@DU?$char_traits@D@std@@V?$allocator@D@2@@std@@@Z@4Q6AHPEAVReferenceImpl@detail@23@PEBD_K@ZEA 	 DATA
	?fcn@?1???A?$TypedArray@VArray@data@matlab@@@data@matlab@@QEAA?AV?$ArrayElementTypedRef@VArray@data@matlab@@$0A@@23@_K@Z@4Q6A_NPEAVArrayImpl@impl@23@_NPEAPEAV5623@@ZEA 	 DATA
	?fcn@?1???A?$TypedArray@VArray@data@matlab@@@data@matlab@@QEBA?AV?$ArrayElementTypedRef@VArray@data@matlab@@$00@23@_K@Z@4Q6AHPEAVArrayImpl@impl@23@0PEAPEAVReferenceImpl@detail@23@@ZEA 	 DATA
	?fcn@?1???A?$TypedArray@VStruct@data@matlab@@@data@matlab@@QEAA?AV?$ArrayElementTypedRef@VStruct@data@matlab@@$0A@@23@_K@Z@4Q6A_NPEAVArrayImpl@impl@23@_NPEAPEAV5623@@ZEA 	 DATA
	?fcn@?1???A?$TypedArray@VStruct@data@matlab@@@data@matlab@@QEBA?AV?$ArrayElementTypedRef@VStruct@data@matlab@@$00@23@_K@Z@4Q6AHPEAVArrayImpl@impl@23@0PEAPEAVReferenceImpl@detail@23@@ZEA 	 DATA
	?fcn@?1???AStruct@data@matlab@@QEBA?AVArray@23@V?$basic_string@DU?$char_traits@D@std@@V?$allocator@D@2@@std@@@Z@4Q6AHPEAVReferenceImpl@detail@23@PEBD_KPEAPEAVArrayImpl@impl@23@@ZEA 	 DATA
	?fcn@?1??begin@?$TypedArray@N@data@matlab@@QEAA?AV?$TypedIterator@N@34@XZ@4Q6A_NPEAVArrayImpl@impl@34@_NPEAPEAV6734@@ZEA 	 DATA
	?fcn@?1??begin@?$TypedArray@N@data@matlab@@QEBA?AV?$TypedIterator@$$CBN@34@XZ@4Q6APEAVIteratorImpl@detail@34@PEAVArrayImpl@impl@34@_N@ZEA 	 DATA
	?fcn@?1??createCharArray@ArrayFactory@data@matlab@@QEAA?AVCharArray@34@AEBV?$basic_string@DU?$char_traits@D@std@@V?$allocator@D@2@@std@@@Z@4Q6AHPEAVArrayFactoryImpl@impl@34@PEBD_KPEAPEAVArrayImpl@934@@ZEA 	 DATA
	?fcn@?1??end@?$TypedArray@N@data@matlab@@QEAA?AV?$TypedIterator@N@34@XZ@4Q6A_NPEAVArrayImpl@impl@34@_NPEAPEAV6734@@ZEA 	 DATA
	?fcn@?1??getDimensions@Array@data@matlab@@QEBA?AV?$vector@_KV?$allocator@_K@std@@@std@@XZ@4Q6AXPEAVArrayImpl@impl@34@PEA_KPEAPEA_K@ZEA 	 DATA
	?fcn@?1??getMemoryLayout@?$IteratorFactory@$$YColumnMajorIterator@data@matlab@@@detail@data@matlab@@CA?AW4MemoryLayout@45@AEBVArray@45@@Z@4Q6AHPEAVArrayImpl@impl@45@PEAH@ZEA 	 DATA
	?fcn@?1??getMemoryLayout@?$IteratorFactory@$$YRowMajorIterator@data@matlab@@@detail@data@matlab@@CA?AW4MemoryLayout@45@AEBVArray@45@@Z@4Q6AHPEAVArrayImpl@impl@45@PEAH@ZEA 	 DATA
	?fcn@?1??getNumberOfElements@Array@data@matlab@@QEBA_KXZ@4Q6A_KPEAVArrayImpl@impl@34@@ZEA 	 DATA
	?fcn@?1??getType@Array@data@matlab@@QEBA?AW4ArrayType@34@XZ@4Q6AHPEAVArrayImpl@impl@34@PEAH@ZEA 	 DATA
	?fcn@?1??toAscii@CharArray@data@matlab@@QEBA?AV?$basic_string@DU?$char_traits@D@std@@V?$allocator@D@2@@std@@XZ@4Q6AHPEAVArrayImpl@impl@34@PEAPEB_SPEA_K@ZEA 	 DATA
	?fcn@?4???0?$TypedIterator@$$CBN@data@matlab@@QEAA@AEBV123@@Z@4Q6APEAVIteratorImpl@detail@23@PEAV4523@@ZEA 	 DATA
	?fcn@?4???0?$TypedIterator@N@data@matlab@@QEAA@AEBV123@@Z@4Q6APEAVIteratorImpl@detail@23@PEAV4523@@ZEA 	 DATA
	?fcn@?5??createStructArray@ArrayFactory@data@matlab@@QEAA?AVStructArray@34@V?$vector@_KV?$allocator@_K@std@@@std@@V?$vector@V?$basic_string@DU?$char_traits@D@std@@V?$allocator@D@2@@std@@V?$allocator@V?$basic_string@DU?$char_traits@D@std@@V?$allocator@D@2@@std@@@2@@7@@Z@4Q6AXPEAVNameListImpl@detail@34@PEBD_K@ZEA 	 DATA
	?hit@?N@???$publish@U?$msg_cm_@V?$allocator@X@std@@@cm@@@Publisher@ros@@QEBAXAEBV?$shared_ptr@U?$msg_cm_@V?$allocator@X@std@@@cm@@@mwboost@@@Z@4_NA 	 DATA
	?instance@?$generic_cat_holder@X@detail@system@mwboost@@2Vgeneric_error_category@234@B 	 DATA
	?instance@?$interop_cat_holder@X@detail@system@mwboost@@2Vinterop_error_category@234@B 	 DATA
	?instance@?$system_cat_holder@X@detail@system@mwboost@@2Vsystem_error_category@234@B 	 DATA
	?minRelease@?4???$resolveFunction@P6AHHHPEA_N@Z@detail@data@matlab@@YAP6AHHHPEA_N@ZW4FunctionType@123@@Z@4V?$vector@U?$pair@W4FunctionType@detail@data@matlab@@V?$basic_string@DU?$char_traits@D@std@@V?$allocator@D@2@@std@@@std@@V?$allocator@U?$pair@W4FunctionType@detail@data@matlab@@V?$basic_string@DU?$char_traits@D@std@@V?$allocator@D@2@@std@@@std@@@2@@std@@B 	 DATA
	?minRelease@?4???$resolveFunction@P6AHPEAPEAVArrayFactoryImpl@impl@data@matlab@@@Z@detail@data@matlab@@YAP6AHPEAPEAVArrayFactoryImpl@impl@23@@ZW4FunctionType@123@@Z@4V?$vector@U?$pair@W4FunctionType@detail@data@matlab@@V?$basic_string@DU?$char_traits@D@std@@V?$allocator@D@2@@std@@@std@@V?$allocator@U?$pair@W4FunctionType@detail@data@matlab@@V?$basic_string@DU?$char_traits@D@std@@V?$allocator@D@2@@std@@@std@@@2@@std@@B 	 DATA
	?minRelease@?4???$resolveFunction@P6AHPEAVArrayFactoryImpl@impl@data@matlab@@HPEA_K_KPEAPEAVArrayImpl@234@@Z@detail@data@matlab@@YAP6AHPEAVArrayFactoryImpl@impl@23@HPEA_K_KPEAPEAVArrayImpl@523@@ZW4FunctionType@123@@Z@4V?$vector@U?$pair@W4FunctionType@detail@data@matlab@@V?$basic_string@DU?$char_traits@D@std@@V?$allocator@D@2@@std@@@std@@V?$allocator@U?$pair@W4FunctionType@detail@data@matlab@@V?$basic_string@DU?$char_traits@D@std@@V?$allocator@D@2@@std@@@std@@@2@@std@@B 	 DATA
	?minRelease@?4???$resolveFunction@P6AHPEAVArrayFactoryImpl@impl@data@matlab@@PEA_K_KPEAVNameListImpl@detail@34@PEAPEAVArrayImpl@234@@Z@detail@data@matlab@@YAP6AHPEAVArrayFactoryImpl@impl@23@PEA_K_KPEAVNameListImpl@123@PEAPEAVArrayImpl@523@@ZW4FunctionType@123@@Z@4V?$vector@U?$pair@W4FunctionType@detail@data@matlab@@V?$basic_string@DU?$char_traits@D@std@@V?$allocator@D@2@@std@@@std@@V?$allocator@U?$pair@W4FunctionType@detail@data@matlab@@V?$basic_string@DU?$char_traits@D@std@@V?$allocator@D@2@@std@@@std@@@2@@std@@B 	 DATA
	?minRelease@?4???$resolveFunction@P6AHPEAVArrayFactoryImpl@impl@data@matlab@@PEBD_KPEAPEAVArrayImpl@234@@Z@detail@data@matlab@@YAP6AHPEAVArrayFactoryImpl@impl@23@PEBD_KPEAPEAVArrayImpl@523@@ZW4FunctionType@123@@Z@4V?$vector@U?$pair@W4FunctionType@detail@data@matlab@@V?$basic_string@DU?$char_traits@D@std@@V?$allocator@D@2@@std@@@std@@V?$allocator@U?$pair@W4FunctionType@detail@data@matlab@@V?$basic_string@DU?$char_traits@D@std@@V?$allocator@D@2@@std@@@std@@@2@@std@@B 	 DATA
	?minRelease@?4???$resolveFunction@P6AHPEAVArrayImpl@impl@data@matlab@@PEAH@Z@detail@data@matlab@@YAP6AHPEAVArrayImpl@impl@23@PEAH@ZW4FunctionType@123@@Z@4V?$vector@U?$pair@W4FunctionType@detail@data@matlab@@V?$basic_string@DU?$char_traits@D@std@@V?$allocator@D@2@@std@@@std@@V?$allocator@U?$pair@W4FunctionType@detail@data@matlab@@V?$basic_string@DU?$char_traits@D@std@@V?$allocator@D@2@@std@@@std@@@2@@std@@B 	 DATA
	?minRelease@?4???$resolveFunction@P6AHPEAVArrayImpl@impl@data@matlab@@PEAPEB_SPEA_K@Z@detail@data@matlab@@YAP6AHPEAVArrayImpl@impl@23@PEAPEB_SPEA_K@ZW4FunctionType@123@@Z@4V?$vector@U?$pair@W4FunctionType@detail@data@matlab@@V?$basic_string@DU?$char_traits@D@std@@V?$allocator@D@2@@std@@@std@@V?$allocator@U?$pair@W4FunctionType@detail@data@matlab@@V?$basic_string@DU?$char_traits@D@std@@V?$allocator@D@2@@std@@@std@@@2@@std@@B 	 DATA
	?minRelease@?4???$resolveFunction@P6AHPEAVArrayImpl@impl@data@matlab@@_KPEAPEAVReferenceImpl@detail@34@@Z@detail@data@matlab@@YAP6AHPEAVArrayImpl@impl@23@_KPEAPEAVReferenceImpl@123@@ZW4FunctionType@123@@Z@4V?$vector@U?$pair@W4FunctionType@detail@data@matlab@@V?$basic_string@DU?$char_traits@D@std@@V?$allocator@D@2@@std@@@std@@V?$allocator@U?$pair@W4FunctionType@detail@data@matlab@@V?$basic_string@DU?$char_traits@D@std@@V?$allocator@D@2@@std@@@std@@@2@@std@@B 	 DATA
	?minRelease@?4???$resolveFunction@P6AHPEAVReferenceImpl@detail@data@matlab@@H_N@Z@detail@data@matlab@@YAP6AHPEAVReferenceImpl@123@H_N@ZW4FunctionType@123@@Z@4V?$vector@U?$pair@W4FunctionType@detail@data@matlab@@V?$basic_string@DU?$char_traits@D@std@@V?$allocator@D@2@@std@@@std@@V?$allocator@U?$pair@W4FunctionType@detail@data@matlab@@V?$basic_string@DU?$char_traits@D@std@@V?$allocator@D@2@@std@@@std@@@2@@std@@B 	 DATA
	?minRelease@?4???$resolveFunction@P6AHPEAVReferenceImpl@detail@data@matlab@@PEAVArrayImpl@impl@34@@Z@detail@data@matlab@@YAP6AHPEAVReferenceImpl@123@PEAVArrayImpl@impl@23@@ZW4FunctionType@123@@Z@4V?$vector@U?$pair@W4FunctionType@detail@data@matlab@@V?$basic_string@DU?$char_traits@D@std@@V?$allocator@D@2@@std@@@std@@V?$allocator@U?$pair@W4FunctionType@detail@data@matlab@@V?$basic_string@DU?$char_traits@D@std@@V?$allocator@D@2@@std@@@std@@@2@@std@@B 	 DATA
	?minRelease@?4???$resolveFunction@P6AHPEAVReferenceImpl@detail@data@matlab@@PEBD_K@Z@detail@data@matlab@@YAP6AHPEAVReferenceImpl@123@PEBD_K@ZW4FunctionType@123@@Z@4V?$vector@U?$pair@W4FunctionType@detail@data@matlab@@V?$basic_string@DU?$char_traits@D@std@@V?$allocator@D@2@@std@@@std@@V?$allocator@U?$pair@W4FunctionType@detail@data@matlab@@V?$basic_string@DU?$char_traits@D@std@@V?$allocator@D@2@@std@@@std@@@2@@std@@B 	 DATA
	?minRelease@?4???$resolveFunction@P6AHPEAVReferenceImpl@detail@data@matlab@@PEBD_KPEAPEAVArrayImpl@impl@34@@Z@detail@data@matlab@@YAP6AHPEAVReferenceImpl@123@PEBD_KPEAPEAVArrayImpl@impl@23@@ZW4FunctionType@123@@Z@4V?$vector@U?$pair@W4FunctionType@detail@data@matlab@@V?$basic_string@DU?$char_traits@D@std@@V?$allocator@D@2@@std@@@std@@V?$allocator@U?$pair@W4FunctionType@detail@data@matlab@@V?$basic_string@DU?$char_traits@D@std@@V?$allocator@D@2@@std@@@std@@@2@@std@@B 	 DATA
	?minRelease@?4???$resolveFunction@P6APEAVIteratorImpl@detail@data@matlab@@PEAV1234@@Z@detail@data@matlab@@YAP6APEAVIteratorImpl@123@PEAV4123@@ZW4FunctionType@123@@Z@4V?$vector@U?$pair@W4FunctionType@detail@data@matlab@@V?$basic_string@DU?$char_traits@D@std@@V?$allocator@D@2@@std@@@std@@V?$allocator@U?$pair@W4FunctionType@detail@data@matlab@@V?$basic_string@DU?$char_traits@D@std@@V?$allocator@D@2@@std@@@std@@@2@@std@@B 	 DATA
	?minRelease@?4???$resolveFunction@P6APEAVIteratorImpl@detail@data@matlab@@PEAVArrayImpl@impl@34@_N@Z@detail@data@matlab@@YAP6APEAVIteratorImpl@123@PEAVArrayImpl@impl@23@_N@ZW4FunctionType@123@@Z@4V?$vector@U?$pair@W4FunctionType@detail@data@matlab@@V?$basic_string@DU?$char_traits@D@std@@V?$allocator@D@2@@std@@@std@@V?$allocator@U?$pair@W4FunctionType@detail@data@matlab@@V?$basic_string@DU?$char_traits@D@std@@V?$allocator@D@2@@std@@@std@@@2@@std@@B 	 DATA
	?minRelease@?4???$resolveFunction@P6APEAVNameListImpl@detail@data@matlab@@_K@Z@detail@data@matlab@@YAP6APEAVNameListImpl@123@_K@ZW4FunctionType@123@@Z@4V?$vector@U?$pair@W4FunctionType@detail@data@matlab@@V?$basic_string@DU?$char_traits@D@std@@V?$allocator@D@2@@std@@@std@@V?$allocator@U?$pair@W4FunctionType@detail@data@matlab@@V?$basic_string@DU?$char_traits@D@std@@V?$allocator@D@2@@std@@@std@@@2@@std@@B 	 DATA
	?minRelease@?4???$resolveFunction@P6AXPEAVArrayFactoryImpl@impl@data@matlab@@@Z@detail@data@matlab@@YAP6AXPEAVArrayFactoryImpl@impl@23@@ZW4FunctionType@123@@Z@4V?$vector@U?$pair@W4FunctionType@detail@data@matlab@@V?$basic_string@DU?$char_traits@D@std@@V?$allocator@D@2@@std@@@std@@V?$allocator@U?$pair@W4FunctionType@detail@data@matlab@@V?$basic_string@DU?$char_traits@D@std@@V?$allocator@D@2@@std@@@std@@@2@@std@@B 	 DATA
	?minRelease@?4???$resolveFunction@P6AXPEAVArrayImpl@impl@data@matlab@@@Z@detail@data@matlab@@YAP6AXPEAVArrayImpl@impl@23@@ZW4FunctionType@123@@Z@4V?$vector@U?$pair@W4FunctionType@detail@data@matlab@@V?$basic_string@DU?$char_traits@D@std@@V?$allocator@D@2@@std@@@std@@V?$allocator@U?$pair@W4FunctionType@detail@data@matlab@@V?$basic_string@DU?$char_traits@D@std@@V?$allocator@D@2@@std@@@std@@@2@@std@@B 	 DATA
	?minRelease@?4???$resolveFunction@P6AXPEAVArrayImpl@impl@data@matlab@@PEA_KPEAPEA_K@Z@detail@data@matlab@@YAP6AXPEAVArrayImpl@impl@23@PEA_KPEAPEA_K@ZW4FunctionType@123@@Z@4V?$vector@U?$pair@W4FunctionType@detail@data@matlab@@V?$basic_string@DU?$char_traits@D@std@@V?$allocator@D@2@@std@@@std@@V?$allocator@U?$pair@W4FunctionType@detail@data@matlab@@V?$basic_string@DU?$char_traits@D@std@@V?$allocator@D@2@@std@@@std@@@2@@std@@B 	 DATA
	?minRelease@?4???$resolveFunction@P6AXPEAVIteratorImpl@detail@data@matlab@@@Z@detail@data@matlab@@YAP6AXPEAVIteratorImpl@123@@ZW4FunctionType@123@@Z@4V?$vector@U?$pair@W4FunctionType@detail@data@matlab@@V?$basic_string@DU?$char_traits@D@std@@V?$allocator@D@2@@std@@@std@@V?$allocator@U?$pair@W4FunctionType@detail@data@matlab@@V?$basic_string@DU?$char_traits@D@std@@V?$allocator@D@2@@std@@@std@@@2@@std@@B 	 DATA
	?minRelease@?4???$resolveFunction@P6AXPEAVIteratorImpl@detail@data@matlab@@PEAPEAX@Z@detail@data@matlab@@YAP6AXPEAVIteratorImpl@123@PEAPEAX@ZW4FunctionType@123@@Z@4V?$vector@U?$pair@W4FunctionType@detail@data@matlab@@V?$basic_string@DU?$char_traits@D@std@@V?$allocator@D@2@@std@@@std@@V?$allocator@U?$pair@W4FunctionType@detail@data@matlab@@V?$basic_string@DU?$char_traits@D@std@@V?$allocator@D@2@@std@@@std@@@2@@std@@B 	 DATA
	?minRelease@?4???$resolveFunction@P6AXPEAVNameListImpl@detail@data@matlab@@@Z@detail@data@matlab@@YAP6AXPEAVNameListImpl@123@@ZW4FunctionType@123@@Z@4V?$vector@U?$pair@W4FunctionType@detail@data@matlab@@V?$basic_string@DU?$char_traits@D@std@@V?$allocator@D@2@@std@@@std@@V?$allocator@U?$pair@W4FunctionType@detail@data@matlab@@V?$basic_string@DU?$char_traits@D@std@@V?$allocator@D@2@@std@@@std@@@2@@std@@B 	 DATA
	?minRelease@?4???$resolveFunction@P6AXPEAVNameListImpl@detail@data@matlab@@PEBD_K@Z@detail@data@matlab@@YAP6AXPEAVNameListImpl@123@PEBD_K@ZW4FunctionType@123@@Z@4V?$vector@U?$pair@W4FunctionType@detail@data@matlab@@V?$basic_string@DU?$char_traits@D@std@@V?$allocator@D@2@@std@@@std@@V?$allocator@U?$pair@W4FunctionType@detail@data@matlab@@V?$basic_string@DU?$char_traits@D@std@@V?$allocator@D@2@@std@@@std@@@2@@std@@B 	 DATA
	?minRelease@?4???$resolveFunction@P6AXPEAVReferenceImpl@detail@data@matlab@@@Z@detail@data@matlab@@YAP6AXPEAVReferenceImpl@123@@ZW4FunctionType@123@@Z@4V?$vector@U?$pair@W4FunctionType@detail@data@matlab@@V?$basic_string@DU?$char_traits@D@std@@V?$allocator@D@2@@std@@@std@@V?$allocator@U?$pair@W4FunctionType@detail@data@matlab@@V?$basic_string@DU?$char_traits@D@std@@V?$allocator@D@2@@std@@@std@@@2@@std@@B 	 DATA
	?minRelease@?4???$resolveFunction@P6AXPEAVReferenceImpl@detail@data@matlab@@PEAPEAVArrayImpl@impl@34@@Z@detail@data@matlab@@YAP6AXPEAVReferenceImpl@123@PEAPEAVArrayImpl@impl@23@@ZW4FunctionType@123@@Z@4V?$vector@U?$pair@W4FunctionType@detail@data@matlab@@V?$basic_string@DU?$char_traits@D@std@@V?$allocator@D@2@@std@@@std@@V?$allocator@U?$pair@W4FunctionType@detail@data@matlab@@V?$basic_string@DU?$char_traits@D@std@@V?$allocator@D@2@@std@@@std@@@2@@std@@B 	 DATA
	?minRelease@?4???$resolveFunction@P6A_KPEAVArrayImpl@impl@data@matlab@@@Z@detail@data@matlab@@YAP6A_KPEAVArrayImpl@impl@23@@ZW4FunctionType@123@@Z@4V?$vector@U?$pair@W4FunctionType@detail@data@matlab@@V?$basic_string@DU?$char_traits@D@std@@V?$allocator@D@2@@std@@@std@@V?$allocator@U?$pair@W4FunctionType@detail@data@matlab@@V?$basic_string@DU?$char_traits@D@std@@V?$allocator@D@2@@std@@@std@@@2@@std@@B 	 DATA
	?minRelease@?4???$resolveFunction@P6A_NPEAVArrayImpl@impl@data@matlab@@_NPEAPEAV1234@@Z@detail@data@matlab@@YAP6A_NPEAVArrayImpl@impl@23@_NPEAPEAV4523@@ZW4FunctionType@123@@Z@4V?$vector@U?$pair@W4FunctionType@detail@data@matlab@@V?$basic_string@DU?$char_traits@D@std@@V?$allocator@D@2@@std@@@std@@V?$allocator@U?$pair@W4FunctionType@detail@data@matlab@@V?$basic_string@DU?$char_traits@D@std@@V?$allocator@D@2@@std@@@std@@@2@@std@@B 	 DATA
	??$?0$$QEAV?$basic_string@DU?$char_traits@D@std@@V?$allocator@D@2@@std@@$$Z$$V@?$pair@$$CBV?$basic_string@DU?$char_traits@D@std@@V?$allocator@D@2@@std@@V12@@std@@QEAA@Upiecewise_construct_t@1@V?$tuple@$$QEAV?$basic_string@DU?$char_traits@D@std@@V?$allocator@D@2@@std@@@1@V?$tuple@$$V@1@@Z
	??$?0$$V@?$_Compressed_pair@V?$allocator@D@std@@V?$_String_val@U?$_Simple_types@D@std@@@2@$00@std@@QEAA@U_Zero_then_variadic_args_t@1@@Z
	??$?0$$V@?$_Ref_count_obj2@V?$ROSBagWriterImpl@U?$msg_cm_@V?$allocator@X@std@@@cm@@Vcm_msg_msg_cm_common@@@@@std@@QEAA@XZ
	??$?0$$V@?$_Ref_count_obj2@V?$ROSPublisherImpl@U?$msg_cm_@V?$allocator@X@std@@@cm@@Vcm_msg_msg_cm_common@@@@@std@@QEAA@XZ
	??$?0$$V@?$_Ref_count_obj2@V?$ROSSubscriberImpl@U?$msg_cm_@V?$allocator@X@std@@@cm@@V?$shared_ptr@$$CBU?$msg_cm_@V?$allocator@X@std@@@cm@@@mwboost@@Vcm_msg_msg_cm_common@@@@@std@@QEAA@XZ
	??$?0AEBI$$Z$$V@?$pair@$$CBIV?$multiset@UIndexEntry@rosbag@@U?$less@UIndexEntry@rosbag@@@std@@V?$allocator@UIndexEntry@rosbag@@@4@@std@@@std@@QEAA@Upiecewise_construct_t@1@V?$tuple@AEBI@1@V?$tuple@$$V@1@@Z
	??$?0AEBUIndexEntry@rosbag@@@?$_Tree_temp_node@V?$allocator@U?$_Tree_node@UIndexEntry@rosbag@@PEAX@std@@@std@@@std@@QEAA@AEAV?$allocator@U?$_Tree_node@UIndexEntry@rosbag@@PEAX@std@@@1@PEAU?$_Tree_node@UIndexEntry@rosbag@@PEAX@1@AEBUIndexEntry@rosbag@@@Z
	??$?0AEBUpiecewise_construct_t@std@@V?$tuple@$$QEAV?$basic_string@DU?$char_traits@D@std@@V?$allocator@D@2@@std@@@1@V?$tuple@$$V@1@@?$_Tree_temp_node@V?$allocator@U?$_Tree_node@U?$pair@$$CBV?$basic_string@DU?$char_traits@D@std@@V?$allocator@D@2@@std@@V12@@std@@PEAX@std@@@std@@@std@@QEAA@AEAV?$allocator@U?$_Tree_node@U?$pair@$$CBV?$basic_string@DU?$char_traits@D@std@@V?$allocator@D@2@@std@@V12@@std@@PEAX@std@@@1@PEAU?$_Tree_node@U?$pair@$$CBV?$basic_string@DU?$char_traits@D@std@@V?$allocator@D@2@@std@@V12@@std@@PEAX@1@AEBUpiecewise_construct_t@1@$$QEAV?$tuple@$$QEAV?$basic_string@DU?$char_traits@D@std@@V?$allocator@D@2@@std@@@1@$$QEAV?$tuple@$$V@1@@Z
	??$?0AEBUpiecewise_construct_t@std@@V?$tuple@AEBI@1@V?$tuple@$$V@1@@?$_Tree_temp_node@V?$allocator@U?$_Tree_node@U?$pair@$$CBII@std@@PEAX@std@@@std@@@std@@QEAA@AEAV?$allocator@U?$_Tree_node@U?$pair@$$CBII@std@@PEAX@std@@@1@PEAU?$_Tree_node@U?$pair@$$CBII@std@@PEAX@1@AEBUpiecewise_construct_t@1@$$QEAV?$tuple@AEBI@1@$$QEAV?$tuple@$$V@1@@Z
	??$?0AEBUpiecewise_construct_t@std@@V?$tuple@AEBI@1@V?$tuple@$$V@1@@?$_Tree_temp_node@V?$allocator@U?$_Tree_node@U?$pair@$$CBIPEAUConnectionInfo@rosbag@@@std@@PEAX@std@@@std@@@std@@QEAA@AEAV?$allocator@U?$_Tree_node@U?$pair@$$CBIPEAUConnectionInfo@rosbag@@@std@@PEAX@std@@@1@PEAU?$_Tree_node@U?$pair@$$CBIPEAUConnectionInfo@rosbag@@@std@@PEAX@1@AEBUpiecewise_construct_t@1@$$QEAV?$tuple@AEBI@1@$$QEAV?$tuple@$$V@1@@Z
	??$?0AEBUpiecewise_construct_t@std@@V?$tuple@AEBI@1@V?$tuple@$$V@1@@?$_Tree_temp_node@V?$allocator@U?$_Tree_node@U?$pair@$$CBIV?$multiset@UIndexEntry@rosbag@@U?$less@UIndexEntry@rosbag@@@std@@V?$allocator@UIndexEntry@rosbag@@@4@@std@@@std@@PEAX@std@@@std@@@std@@QEAA@AEAV?$allocator@U?$_Tree_node@U?$pair@$$CBIV?$multiset@UIndexEntry@rosbag@@U?$less@UIndexEntry@rosbag@@@std@@V?$allocator@UIndexEntry@rosbag@@@4@@std@@@std@@PEAX@std@@@1@PEAU?$_Tree_node@U?$pair@$$CBIV?$multiset@UIndexEntry@rosbag@@U?$less@UIndexEntry@rosbag@@@std@@V?$allocator@UIndexEntry@rosbag@@@4@@std@@@std@@PEAX@1@AEBUpiecewise_construct_t@1@$$QEAV?$tuple@AEBI@1@$$QEAV?$tuple@$$V@1@@Z
	??$?0AEBUpiecewise_construct_t@std@@V?$tuple@AEBV?$basic_string@DU?$char_traits@D@std@@V?$allocator@D@2@@std@@@1@V?$tuple@$$V@1@@?$_Tree_temp_node@V?$allocator@U?$_Tree_node@U?$pair@$$CBV?$basic_string@DU?$char_traits@D@std@@V?$allocator@D@2@@std@@I@std@@PEAX@std@@@std@@@std@@QEAA@AEAV?$allocator@U?$_Tree_node@U?$pair@$$CBV?$basic_string@DU?$char_traits@D@std@@V?$allocator@D@2@@std@@I@std@@PEAX@std@@@1@PEAU?$_Tree_node@U?$pair@$$CBV?$basic_string@DU?$char_traits@D@std@@V?$allocator@D@2@@std@@I@std@@PEAX@1@AEBUpiecewise_construct_t@1@$$QEAV?$tuple@AEBV?$basic_string@DU?$char_traits@D@std@@V?$allocator@D@2@@std@@@1@$$QEAV?$tuple@$$V@1@@Z
	??$?0AEBUpiecewise_construct_t@std@@V?$tuple@AEBV?$basic_string@DU?$char_traits@D@std@@V?$allocator@D@2@@std@@@1@V?$tuple@$$V@1@@?$_Tree_temp_node@V?$allocator@U?$_Tree_node@U?$pair@$$CBV?$basic_string@DU?$char_traits@D@std@@V?$allocator@D@2@@std@@PEAVAbstractMetaObjectBase@impl@ros1_class_loader@@@std@@PEAX@std@@@std@@@std@@QEAA@AEAV?$allocator@U?$_Tree_node@U?$pair@$$CBV?$basic_string@DU?$char_traits@D@std@@V?$allocator@D@2@@std@@PEAVAbstractMetaObjectBase@impl@ros1_class_loader@@@std@@PEAX@std@@@1@PEAU?$_Tree_node@U?$pair@$$CBV?$basic_string@DU?$char_traits@D@std@@V?$allocator@D@2@@std@@PEAVAbstractMetaObjectBase@impl@ros1_class_loader@@@std@@PEAX@1@AEBUpiecewise_construct_t@1@$$QEAV?$tuple@AEBV?$basic_string@DU?$char_traits@D@std@@V?$allocator@D@2@@std@@@1@$$QEAV?$tuple@$$V@1@@Z
	??$?0AEBUpiecewise_construct_t@std@@V?$tuple@AEBV?$basic_string@DU?$char_traits@D@std@@V?$allocator@D@2@@std@@@1@V?$tuple@$$V@1@@?$_Tree_temp_node@V?$allocator@U?$_Tree_node@U?$pair@$$CBV?$basic_string@DU?$char_traits@D@std@@V?$allocator@D@2@@std@@V12@@std@@PEAX@std@@@std@@@std@@QEAA@AEAV?$allocator@U?$_Tree_node@U?$pair@$$CBV?$basic_string@DU?$char_traits@D@std@@V?$allocator@D@2@@std@@V12@@std@@PEAX@std@@@1@PEAU?$_Tree_node@U?$pair@$$CBV?$basic_string@DU?$char_traits@D@std@@V?$allocator@D@2@@std@@V12@@std@@PEAX@1@AEBUpiecewise_construct_t@1@$$QEAV?$tuple@AEBV?$basic_string@DU?$char_traits@D@std@@V?$allocator@D@2@@std@@@1@$$QEAV?$tuple@$$V@1@@Z
	??$?0AEBUpiecewise_construct_t@std@@V?$tuple@AEBV?$basic_string@DU?$char_traits@D@std@@V?$allocator@D@2@@std@@@1@V?$tuple@$$V@1@@?$_Tree_temp_node@V?$allocator@U?$_Tree_node@U?$pair@$$CBV?$basic_string@DU?$char_traits@D@std@@V?$allocator@D@2@@std@@V?$shared_ptr@VMATLABROSMsgInterfaceBase@@@mwboost@@@std@@PEAX@std@@@std@@@std@@QEAA@AEAV?$allocator@U?$_Tree_node@U?$pair@$$CBV?$basic_string@DU?$char_traits@D@std@@V?$allocator@D@2@@std@@V?$shared_ptr@VMATLABROSMsgInterfaceBase@@@mwboost@@@std@@PEAX@std@@@1@PEAU?$_Tree_node@U?$pair@$$CBV?$basic_string@DU?$char_traits@D@std@@V?$allocator@D@2@@std@@V?$shared_ptr@VMATLABROSMsgInterfaceBase@@@mwboost@@@std@@PEAX@1@AEBUpiecewise_construct_t@1@$$QEAV?$tuple@AEBV?$basic_string@DU?$char_traits@D@std@@V?$allocator@D@2@@std@@@1@$$QEAV?$tuple@$$V@1@@Z
	??$?0AEBUpiecewise_construct_t@std@@V?$tuple@AEBV?$map@V?$basic_string@DU?$char_traits@D@std@@V?$allocator@D@2@@std@@V12@U?$less@V?$basic_string@DU?$char_traits@D@std@@V?$allocator@D@2@@std@@@2@V?$allocator@U?$pair@$$CBV?$basic_string@DU?$char_traits@D@std@@V?$allocator@D@2@@std@@V12@@std@@@2@@std@@@1@V?$tuple@$$V@1@@?$_Tree_temp_node@V?$allocator@U?$_Tree_node@U?$pair@$$CBV?$map@V?$basic_string@DU?$char_traits@D@std@@V?$allocator@D@2@@std@@V12@U?$less@V?$basic_string@DU?$char_traits@D@std@@V?$allocator@D@2@@std@@@2@V?$allocator@U?$pair@$$CBV?$basic_string@DU?$char_traits@D@std@@V?$allocator@D@2@@std@@V12@@std@@@2@@std@@I@std@@PEAX@std@@@std@@@std@@QEAA@AEAV?$allocator@U?$_Tree_node@U?$pair@$$CBV?$map@V?$basic_string@DU?$char_traits@D@std@@V?$allocator@D@2@@std@@V12@U?$less@V?$basic_string@DU?$char_traits@D@std@@V?$allocator@D@2@@std@@@2@V?$allocator@U?$pair@$$CBV?$basic_string@DU?$char_traits@D@std@@V?$allocator@D@2@@std@@V12@@std@@@2@@std@@I@std@@PEAX@std@@@1@PEAU?$_Tree_node@U?$pair@$$CBV?$map@V?$basic_string@DU?$char_traits@D@std@@V?$allocator@D@2@@std@@V12@U?$less@V?$basic_string@DU?$char_traits@D@std@@V?$allocator@D@2@@std@@@2@V?$allocator@U?$pair@$$CBV?$basic_string@DU?$char_traits@D@std@@V?$allocator@D@2@@std@@V12@@std@@@2@@std@@I@std@@PEAX@1@AEBUpiecewise_construct_t@1@$$QEAV?$tuple@AEBV?$map@V?$basic_string@DU?$char_traits@D@std@@V?$allocator@D@2@@std@@V12@U?$less@V?$basic_string@DU?$char_traits@D@std@@V?$allocator@D@2@@std@@@2@V?$allocator@U?$pair@$$CBV?$basic_string@DU?$char_traits@D@std@@V?$allocator@D@2@@std@@V12@@std@@@2@@std@@@1@$$QEAV?$tuple@$$V@1@@Z
	??$?0AEBV?$basic_string@DU?$char_traits@D@std@@V?$allocator@D@2@@std@@$$Z$$V@?$pair@$$CBV?$basic_string@DU?$char_traits@D@std@@V?$allocator@D@2@@std@@I@std@@QEAA@Upiecewise_construct_t@1@V?$tuple@AEBV?$basic_string@DU?$char_traits@D@std@@V?$allocator@D@2@@std@@@1@V?$tuple@$$V@1@@Z
	??$?0AEBV?$basic_string@DU?$char_traits@D@std@@V?$allocator@D@2@@std@@$$Z$$V@?$pair@$$CBV?$basic_string@DU?$char_traits@D@std@@V?$allocator@D@2@@std@@PEAVAbstractMetaObjectBase@impl@ros1_class_loader@@@std@@QEAA@Upiecewise_construct_t@1@V?$tuple@AEBV?$basic_string@DU?$char_traits@D@std@@V?$allocator@D@2@@std@@@1@V?$tuple@$$V@1@@Z
	??$?0AEBV?$basic_string@DU?$char_traits@D@std@@V?$allocator@D@2@@std@@$$Z$$V@?$pair@$$CBV?$basic_string@DU?$char_traits@D@std@@V?$allocator@D@2@@std@@V12@@std@@QEAA@Upiecewise_construct_t@1@V?$tuple@AEBV?$basic_string@DU?$char_traits@D@std@@V?$allocator@D@2@@std@@@1@V?$tuple@$$V@1@@Z
	??$?0AEBV?$basic_string@DU?$char_traits@D@std@@V?$allocator@D@2@@std@@$$Z$$V@?$pair@$$CBV?$basic_string@DU?$char_traits@D@std@@V?$allocator@D@2@@std@@V?$shared_ptr@VMATLABROSMsgInterfaceBase@@@mwboost@@@std@@QEAA@Upiecewise_construct_t@1@V?$tuple@AEBV?$basic_string@DU?$char_traits@D@std@@V?$allocator@D@2@@std@@@1@V?$tuple@$$V@1@@Z
	??$?0AEBV?$map@V?$basic_string@DU?$char_traits@D@std@@V?$allocator@D@2@@std@@V12@U?$less@V?$basic_string@DU?$char_traits@D@std@@V?$allocator@D@2@@std@@@2@V?$allocator@U?$pair@$$CBV?$basic_string@DU?$char_traits@D@std@@V?$allocator@D@2@@std@@V12@@std@@@2@@std@@$$Z$$V@?$pair@$$CBV?$map@V?$basic_string@DU?$char_traits@D@std@@V?$allocator@D@2@@std@@V12@U?$less@V?$basic_string@DU?$char_traits@D@std@@V?$allocator@D@2@@std@@@2@V?$allocator@U?$pair@$$CBV?$basic_string@DU?$char_traits@D@std@@V?$allocator@D@2@@std@@V12@@std@@@2@@std@@I@std@@QEAA@Upiecewise_construct_t@1@V?$tuple@AEBV?$map@V?$basic_string@DU?$char_traits@D@std@@V?$allocator@D@2@@std@@V12@U?$less@V?$basic_string@DU?$char_traits@D@std@@V?$allocator@D@2@@std@@@2@V?$allocator@U?$pair@$$CBV?$basic_string@DU?$char_traits@D@std@@V?$allocator@D@2@@std@@V12@@std@@@2@@std@@@1@V?$tuple@$$V@1@@Z
	??$?0PEAEU?$checked_array_deleter@E@mwboost@@@shared_count@detail@mwboost@@QEAA@PEAEU?$checked_array_deleter@E@2@@Z
	??$?0PEAU?$msg_cm_@V?$allocator@X@std@@@cm@@V?$sp_ms_deleter@U?$msg_cm_@V?$allocator@X@std@@@cm@@@detail@mwboost@@@shared_count@detail@mwboost@@QEAA@PEAU?$msg_cm_@V?$allocator@X@std@@@cm@@U?$sp_inplace_tag@V?$sp_ms_deleter@U?$msg_cm_@V?$allocator@X@std@@@cm@@@detail@mwboost@@@12@@Z
	??$?0PEAV?$MATLABROSMsgInterface@U?$Header_@V?$allocator@X@std@@@std_msgs@@@@V?$bind_t@XV?$mf1@XVClassLoader@ros1_class_loader@@PEAV?$MATLABROSMsgInterface@U?$Header_@V?$allocator@X@std@@@std_msgs@@@@@_mfi@mwboost@@V?$list2@V?$value@PEAVClassLoader@ros1_class_loader@@@_bi@mwboost@@U?$arg@$00@3@@_bi@3@@_bi@mwboost@@@shared_count@detail@mwboost@@QEAA@PEAV?$MATLABROSMsgInterface@U?$Header_@V?$allocator@X@std@@@std_msgs@@@@V?$bind_t@XV?$mf1@XVClassLoader@ros1_class_loader@@PEAV?$MATLABROSMsgInterface@U?$Header_@V?$allocator@X@std@@@std_msgs@@@@@_mfi@mwboost@@V?$list2@V?$value@PEAVClassLoader@ros1_class_loader@@@_bi@mwboost@@U?$arg@$00@3@@_bi@3@@_bi@2@@Z
	??$?0PEAV?$SubscriptionCallbackHelperT@AEBV?$shared_ptr@$$CBU?$msg_cm_@V?$allocator@X@std@@@cm@@@mwboost@@X@ros@@V?$sp_ms_deleter@V?$SubscriptionCallbackHelperT@AEBV?$shared_ptr@$$CBU?$msg_cm_@V?$allocator@X@std@@@cm@@@mwboost@@X@ros@@@detail@mwboost@@@shared_count@detail@mwboost@@QEAA@PEAV?$SubscriptionCallbackHelperT@AEBV?$shared_ptr@$$CBU?$msg_cm_@V?$allocator@X@std@@@cm@@@mwboost@@X@ros@@U?$sp_inplace_tag@V?$sp_ms_deleter@V?$SubscriptionCallbackHelperT@AEBV?$shared_ptr@$$CBU?$msg_cm_@V?$allocator@X@std@@@cm@@@mwboost@@X@ros@@@detail@mwboost@@@12@@Z
	??$?0PEAV?$map@V?$basic_string@DU?$char_traits@D@std@@V?$allocator@D@2@@std@@V12@U?$less@V?$basic_string@DU?$char_traits@D@std@@V?$allocator@D@2@@std@@@2@V?$allocator@U?$pair@$$CBV?$basic_string@DU?$char_traits@D@std@@V?$allocator@D@2@@std@@V12@@std@@@2@@std@@V?$sp_ms_deleter@V?$map@V?$basic_string@DU?$char_traits@D@std@@V?$allocator@D@2@@std@@V12@U?$less@V?$basic_string@DU?$char_traits@D@std@@V?$allocator@D@2@@std@@@2@V?$allocator@U?$pair@$$CBV?$basic_string@DU?$char_traits@D@std@@V?$allocator@D@2@@std@@V12@@std@@@2@@std@@@detail@mwboost@@@shared_count@detail@mwboost@@QEAA@PEAV?$map@V?$basic_string@DU?$char_traits@D@std@@V?$allocator@D@2@@std@@V12@U?$less@V?$basic_string@DU?$char_traits@D@std@@V?$allocator@D@2@@std@@@2@V?$allocator@U?$pair@$$CBV?$basic_string@DU?$char_traits@D@std@@V?$allocator@D@2@@std@@V12@@std@@@2@@std@@U?$sp_inplace_tag@V?$sp_ms_deleter@V?$map@V?$basic_string@DU?$char_traits@D@std@@V?$allocator@D@2@@std@@V12@U?$less@V?$basic_string@DU?$char_traits@D@std@@V?$allocator@D@2@@std@@@2@V?$allocator@U?$pair@$$CBV?$basic_string@DU?$char_traits@D@std@@V?$allocator@D@2@@std@@V12@@std@@@2@@std@@@detail@mwboost@@@12@@Z
	??$?0PEA_K$0A@@?$vector@_KV?$allocator@_K@std@@@std@@QEAA@PEA_K0AEBV?$allocator@_K@1@@Z
	??$?0V?$allocator@U?$_Tree_node@U?$pair@$$CBV?$basic_string@DU?$char_traits@D@std@@V?$allocator@D@2@@std@@V12@@std@@PEAX@std@@@std@@@?$_Tree@V?$_Tmap_traits@V?$basic_string@DU?$char_traits@D@std@@V?$allocator@D@2@@std@@V12@U?$less@V?$basic_string@DU?$char_traits@D@std@@V?$allocator@D@2@@std@@@2@V?$allocator@U?$pair@$$CBV?$basic_string@DU?$char_traits@D@std@@V?$allocator@D@2@@std@@V12@@std@@@2@$0A@@std@@@std@@QEAA@AEBV01@$$QEAV?$allocator@U?$_Tree_node@U?$pair@$$CBV?$basic_string@DU?$char_traits@D@std@@V?$allocator@D@2@@std@@V12@@std@@PEAX@std@@@1@@Z
	??$?0V?$clone_impl@Ubad_alloc_@exception_detail@mwboost@@@exception_detail@mwboost@@@?$shared_ptr@$$CBVclone_base@exception_detail@mwboost@@@mwboost@@QEAA@PEAV?$clone_impl@Ubad_alloc_@exception_detail@mwboost@@@exception_detail@1@@Z
	??$?0V?$clone_impl@Ubad_alloc_@exception_detail@mwboost@@@exception_detail@mwboost@@@shared_count@detail@mwboost@@QEAA@PEAV?$clone_impl@Ubad_alloc_@exception_detail@mwboost@@@exception_detail@2@@Z
	??$?0V?$clone_impl@Ubad_exception_@exception_detail@mwboost@@@exception_detail@mwboost@@@?$shared_ptr@$$CBVclone_base@exception_detail@mwboost@@@mwboost@@QEAA@PEAV?$clone_impl@Ubad_exception_@exception_detail@mwboost@@@exception_detail@1@@Z
	??$?0V?$clone_impl@Ubad_exception_@exception_detail@mwboost@@@exception_detail@mwboost@@@shared_count@detail@mwboost@@QEAA@PEAV?$clone_impl@Ubad_exception_@exception_detail@mwboost@@@exception_detail@2@@Z
	??$?0V?$function@$$A6AXAEBV?$shared_ptr@$$CBU?$msg_cm_@V?$allocator@X@std@@@cm@@@mwboost@@@Z@mwboost@@@?$function@$$A6AXV?$shared_ptr@$$CBU?$msg_cm_@V?$allocator@X@std@@@cm@@@mwboost@@@Z@mwboost@@QEAA@V?$function@$$A6AXAEBV?$shared_ptr@$$CBU?$msg_cm_@V?$allocator@X@std@@@cm@@@mwboost@@@Z@1@H@Z
	??$?0VPublisher@ros@@@?$_Ref_count_obj2@VPublisher@ros@@@std@@QEAA@$$QEAVPublisher@ros@@@Z
	??$?0VSubscriber@ros@@@?$_Ref_count_obj2@VSubscriber@ros@@@std@@QEAA@$$QEAVSubscriber@ros@@@Z
	??$?0W4FunctionType@detail@data@matlab@@AEAY06$$CBD$0A@@?$pair@W4FunctionType@detail@data@matlab@@V?$basic_string@DU?$char_traits@D@std@@V?$allocator@D@2@@std@@@std@@QEAA@$$QEAW4FunctionType@detail@data@matlab@@AEAY06$$CBD@Z
	??$?4U?$msg_cm_@V?$allocator@X@std@@@cm@@@?$shared_ptr@$$CBX@mwboost@@QEAAAEAV01@AEBV?$shared_ptr@U?$msg_cm_@V?$allocator@X@std@@@cm@@@1@@Z
	??$?4V?$MATLABROSMsgInterface@U?$Header_@V?$allocator@X@std@@@std_msgs@@@@@?$shared_ptr@VMATLABROSMsgInterfaceBase@@@mwboost@@QEAAAEAV01@AEBV?$shared_ptr@V?$MATLABROSMsgInterface@U?$Header_@V?$allocator@X@std@@@std_msgs@@@@@1@@Z
	??$?4V?$SubscriptionCallbackHelperT@AEBV?$shared_ptr@$$CBU?$msg_cm_@V?$allocator@X@std@@@cm@@@mwboost@@X@ros@@@?$shared_ptr@VSubscriptionCallbackHelper@ros@@@mwboost@@QEAAAEAV01@$$QEAV?$shared_ptr@V?$SubscriptionCallbackHelperT@AEBV?$shared_ptr@$$CBU?$msg_cm_@V?$allocator@X@std@@@cm@@@mwboost@@X@ros@@@1@@Z
	??$?9N@?$OrderedIterator@NVColumnMajorOrder@detail@data@matlab@@@detail@data@matlab@@QEBA_NAEBV0123@@Z
	??$?9N@?$OrderedIterator@NVRowMajorOrder@detail@data@matlab@@@detail@data@matlab@@QEBA_NAEBV0123@@Z
	??$?EN@?$OrderedIterator@NVColumnMajorOrder@detail@data@matlab@@@detail@data@matlab@@QEAAAEAV0123@XZ
	??$?EN@?$OrderedIterator@NVRowMajorOrder@detail@data@matlab@@@detail@data@matlab@@QEAAAEAV0123@XZ
	??$?H$$CBN@?$TypedIterator@$$CBN@data@matlab@@QEBA?AV012@_J@Z
	??$?HDU?$char_traits@D@std@@V?$allocator@D@1@@std@@YA?AV?$basic_string@DU?$char_traits@D@std@@V?$allocator@D@2@@0@$$QEAV10@0@Z
	??$?HDU?$char_traits@D@std@@V?$allocator@D@1@@std@@YA?AV?$basic_string@DU?$char_traits@D@std@@V?$allocator@D@2@@0@$$QEAV10@QEBD@Z
	??$?HDU?$char_traits@D@std@@V?$allocator@D@1@@std@@YA?AV?$basic_string@DU?$char_traits@D@std@@V?$allocator@D@2@@0@QEBDAEBV10@@Z
	??$?M$$CBV?$basic_string@DU?$char_traits@D@std@@V?$allocator@D@2@@std@@V01@$$CBV01@V01@@std@@YA_NAEBU?$pair@$$CBV?$basic_string@DU?$char_traits@D@std@@V?$allocator@D@2@@std@@V12@@0@0@Z
	??$?MDU?$char_traits@D@std@@V?$allocator@D@1@@std@@YA_NAEBV?$basic_string@DU?$char_traits@D@std@@V?$allocator@D@2@@0@0@Z
	??$?MV?$basic_string@DU?$char_traits@D@std@@V?$allocator@D@2@@std@@V01@U?$less@V?$basic_string@DU?$char_traits@D@std@@V?$allocator@D@2@@std@@@1@V?$allocator@U?$pair@$$CBV?$basic_string@DU?$char_traits@D@std@@V?$allocator@D@2@@std@@V12@@std@@@1@@std@@YA_NAEBV?$map@V?$basic_string@DU?$char_traits@D@std@@V?$allocator@D@2@@std@@V12@U?$less@V?$basic_string@DU?$char_traits@D@std@@V?$allocator@D@2@@std@@@2@V?$allocator@U?$pair@$$CBV?$basic_string@DU?$char_traits@D@std@@V?$allocator@D@2@@std@@V12@@std@@@2@@0@0@Z
	??$?RAEAPEAV?$MATLABROSMsgInterface@U?$Header_@V?$allocator@X@std@@@std_msgs@@@@@?$bind_t@XV?$mf1@XVClassLoader@ros1_class_loader@@PEAV?$MATLABROSMsgInterface@U?$Header_@V?$allocator@X@std@@@std_msgs@@@@@_mfi@mwboost@@V?$list2@V?$value@PEAVClassLoader@ros1_class_loader@@@_bi@mwboost@@U?$arg@$00@3@@_bi@3@@_bi@mwboost@@QEAAXAEAPEAV?$MATLABROSMsgInterface@U?$Header_@V?$allocator@X@std@@@std_msgs@@@@@Z
	??$?RAEBV?$shared_ptr@$$CBU?$msg_cm_@V?$allocator@X@std@@@cm@@@mwboost@@@?$bind_t@XV?$mf1@XV?$ROSSubscriberImpl@U?$msg_cm_@V?$allocator@X@std@@@cm@@V?$shared_ptr@$$CBU?$msg_cm_@V?$allocator@X@std@@@cm@@@mwboost@@Vcm_msg_msg_cm_common@@@@AEBV?$shared_ptr@$$CBU?$msg_cm_@V?$allocator@X@std@@@cm@@@mwboost@@@_mfi@mwboost@@V?$list2@V?$value@PEAV?$ROSSubscriberImpl@U?$msg_cm_@V?$allocator@X@std@@@cm@@V?$shared_ptr@$$CBU?$msg_cm_@V?$allocator@X@std@@@cm@@@mwboost@@Vcm_msg_msg_cm_common@@@@@_bi@mwboost@@U?$arg@$00@3@@_bi@3@@_bi@mwboost@@QEAAXAEBV?$shared_ptr@$$CBU?$msg_cm_@V?$allocator@X@std@@@cm@@@2@@Z
	??$_Allocate_for_capacity@$0A@@?$basic_string@DU?$char_traits@D@std@@V?$allocator@D@2@@std@@CAPEADAEAV?$allocator@D@1@AEA_K@Z
	??$_Allocate_manually_vector_aligned@U_Default_allocate_traits@std@@@std@@YAPEAX_K@Z
	??$_Assign_counted_range@PEAN@?$vector@NV?$allocator@N@std@@@std@@AEAAXPEAN_K@Z
	??$_Assign_counted_range@PEAV?$basic_string@DU?$char_traits@D@std@@V?$allocator@D@2@@std@@@?$vector@V?$basic_string@DU?$char_traits@D@std@@V?$allocator@D@2@@std@@V?$allocator@V?$basic_string@DU?$char_traits@D@std@@V?$allocator@D@2@@std@@@2@@std@@AEAAXPEAV?$basic_string@DU?$char_traits@D@std@@V?$allocator@D@2@@1@_K@Z
	??$_Atomic_address_as@JU?$_Atomic_padded@H@std@@@std@@YAPECJAEAU?$_Atomic_padded@H@0@@Z
	??$_Buyheadnode@V?$allocator@U?$_Tree_node@U?$pair@$$CBV?$basic_string@DU?$char_traits@D@std@@V?$allocator@D@2@@std@@V12@@std@@PEAX@std@@@std@@@?$_Tree_node@U?$pair@$$CBV?$basic_string@DU?$char_traits@D@std@@V?$allocator@D@2@@std@@V12@@std@@PEAX@std@@SAPEAU01@AEAV?$allocator@U?$_Tree_node@U?$pair@$$CBV?$basic_string@DU?$char_traits@D@std@@V?$allocator@D@2@@std@@V12@@std@@PEAX@std@@@1@@Z
	??$_Buyheadnode@V?$allocator@U?$_Tree_node@UIndexEntry@rosbag@@PEAX@std@@@std@@@?$_Tree_node@UIndexEntry@rosbag@@PEAX@std@@SAPEAU01@AEAV?$allocator@U?$_Tree_node@UIndexEntry@rosbag@@PEAX@std@@@1@@Z
	??$_Buynode@AEAU?$pair@$$CBV?$basic_string@DU?$char_traits@D@std@@V?$allocator@D@2@@std@@V12@@std@@@?$_Tree@V?$_Tmap_traits@V?$basic_string@DU?$char_traits@D@std@@V?$allocator@D@2@@std@@V12@U?$less@V?$basic_string@DU?$char_traits@D@std@@V?$allocator@D@2@@std@@@2@V?$allocator@U?$pair@$$CBV?$basic_string@DU?$char_traits@D@std@@V?$allocator@D@2@@std@@V12@@std@@@2@$0A@@std@@@std@@IEAAPEAU?$_Tree_node@U?$pair@$$CBV?$basic_string@DU?$char_traits@D@std@@V?$allocator@D@2@@std@@V12@@std@@PEAX@1@AEAU?$pair@$$CBV?$basic_string@DU?$char_traits@D@std@@V?$allocator@D@2@@std@@V12@@1@@Z
	??$_Buynode@V?$allocator@U?$_Tree_node@U?$pair@$$CBV?$basic_string@DU?$char_traits@D@std@@V?$allocator@D@2@@std@@V12@@std@@PEAX@std@@@std@@AEAU?$pair@$$CBV?$basic_string@DU?$char_traits@D@std@@V?$allocator@D@2@@std@@V12@@2@@?$_Tree_node@U?$pair@$$CBV?$basic_string@DU?$char_traits@D@std@@V?$allocator@D@2@@std@@V12@@std@@PEAX@std@@SAPEAU01@AEAV?$allocator@U?$_Tree_node@U?$pair@$$CBV?$basic_string@DU?$char_traits@D@std@@V?$allocator@D@2@@std@@V12@@std@@PEAX@std@@@1@PEAU01@AEAU?$pair@$$CBV?$basic_string@DU?$char_traits@D@std@@V?$allocator@D@2@@std@@V12@@1@@Z
	??$_Construct@$00PEBD@?$basic_string@DU?$char_traits@D@std@@V?$allocator@D@2@@std@@AEAAXQEBD_K@Z
	??$_Construct@$01PEBD@?$basic_string@DU?$char_traits@D@std@@V?$allocator@D@2@@std@@AEAAXQEBD_K@Z
	??$_Construct@$0A@D@?$basic_string@DU?$char_traits@D@std@@V?$allocator@D@2@@std@@AEAAXD_K@Z
	??$_Construct_in_place@V?$basic_string@DU?$char_traits@D@std@@V?$allocator@D@2@@std@@V12@@std@@YAXAEAV?$basic_string@DU?$char_traits@D@std@@V?$allocator@D@2@@0@$$QEAV10@@Z
	??$_Construct_n@AEBQEANAEBQEAN@?$vector@NV?$allocator@N@std@@@std@@AEAAX_KAEBQEAN1@Z
	??$_Construct_n@AEBQEAV?$basic_string@DU?$char_traits@D@std@@V?$allocator@D@2@@std@@AEBQEAV12@@?$vector@V?$basic_string@DU?$char_traits@D@std@@V?$allocator@D@2@@std@@V?$allocator@V?$basic_string@DU?$char_traits@D@std@@V?$allocator@D@2@@std@@@2@@std@@AEAAX_KAEBQEAV?$basic_string@DU?$char_traits@D@std@@V?$allocator@D@2@@1@1@Z
	??$_Construct_n@AEBQEA_JAEBQEA_J@?$vector@_JV?$allocator@_J@std@@@std@@AEAAX_KAEBQEA_J1@Z
	??$_Construct_n@AEBQEA_KAEBQEA_K@?$vector@_KV?$allocator@_K@std@@@std@@AEAAX_KAEBQEA_K1@Z
	??$_Construct_n@AEB_J@?$vector@_JV?$allocator@_J@std@@@std@@AEAAX_KAEB_J@Z
	??$_Construct_n@PEA_KPEA_K@?$vector@_KV?$allocator@_K@std@@@std@@AEAAX_K$$QEAPEA_K1@Z
	??$_Construct_n@PEBU?$pair@W4FunctionType@detail@data@matlab@@V?$basic_string@DU?$char_traits@D@std@@V?$allocator@D@2@@std@@@std@@PEBU12@@?$vector@U?$pair@W4FunctionType@detail@data@matlab@@V?$basic_string@DU?$char_traits@D@std@@V?$allocator@D@2@@std@@@std@@V?$allocator@U?$pair@W4FunctionType@detail@data@matlab@@V?$basic_string@DU?$char_traits@D@std@@V?$allocator@D@2@@std@@@std@@@2@@std@@AEAAX_K$$QEAPEBU?$pair@W4FunctionType@detail@data@matlab@@V?$basic_string@DU?$char_traits@D@std@@V?$allocator@D@2@@std@@@1@1@Z
	??$_Construct_n@PEBV?$basic_string@DU?$char_traits@D@std@@V?$allocator@D@2@@std@@PEBV12@@?$vector@V?$basic_string@DU?$char_traits@D@std@@V?$allocator@D@2@@std@@V?$allocator@V?$basic_string@DU?$char_traits@D@std@@V?$allocator@D@2@@std@@@2@@std@@AEAAX_K$$QEAPEBV?$basic_string@DU?$char_traits@D@std@@V?$allocator@D@2@@1@1@Z
	??$_Construct_n@PEBVArray@data@matlab@@PEBV123@@?$vector@VArray@data@matlab@@V?$allocator@VArray@data@matlab@@@std@@@std@@AEAAX_K$$QEAPEBVArray@data@matlab@@1@Z
	??$_Construct_n@PEB_KPEB_K@?$vector@_KV?$allocator@_K@std@@@std@@AEAAX_K$$QEAPEB_K1@Z
	??$_Copy@$0A@@?$_Tree@V?$_Tmap_traits@V?$basic_string@DU?$char_traits@D@std@@V?$allocator@D@2@@std@@V12@U?$less@V?$basic_string@DU?$char_traits@D@std@@V?$allocator@D@2@@std@@@2@V?$allocator@U?$pair@$$CBV?$basic_string@DU?$char_traits@D@std@@V?$allocator@D@2@@std@@V12@@std@@@2@$0A@@std@@@std@@IEAAXAEBV01@@Z
	??$_Copy_memmove@PEANPEAN@std@@YAPEANPEAN00@Z
	??$_Copy_memmove@PEA_JPEA_J@std@@YAPEA_JPEA_J00@Z
	??$_Copy_memmove@PEA_KPEA_K@std@@YAPEA_KPEA_K00@Z
	??$_Copy_memmove@PEB_KPEA_K@std@@YAPEA_KPEB_K0PEA_K@Z
	??$_Copy_memmove_n@PEANPEAN@std@@YAPEANPEAN_K0@Z
	??$_Copy_nodes@$0A@@?$_Tree@V?$_Tmap_traits@V?$basic_string@DU?$char_traits@D@std@@V?$allocator@D@2@@std@@V12@U?$less@V?$basic_string@DU?$char_traits@D@std@@V?$allocator@D@2@@std@@@2@V?$allocator@U?$pair@$$CBV?$basic_string@DU?$char_traits@D@std@@V?$allocator@D@2@@std@@V12@@std@@@2@$0A@@std@@@std@@IEAAPEAU?$_Tree_node@U?$pair@$$CBV?$basic_string@DU?$char_traits@D@std@@V?$allocator@D@2@@std@@V12@@std@@PEAX@1@PEAU21@0@Z
	??$_Copy_unchecked@V?$TypedIterator@$$CBN@data@matlab@@V123@PEAN@std@@YAPEANV?$TypedIterator@$$CBN@data@matlab@@0PEAN@Z
	??$_Destroy_range@V?$allocator@N@std@@@std@@YAXPEANQEANAEAV?$allocator@N@0@@Z
	??$_Destroy_range@V?$allocator@V?$basic_string@DU?$char_traits@D@std@@V?$allocator@D@2@@std@@@std@@@std@@YAXPEAV?$basic_string@DU?$char_traits@D@std@@V?$allocator@D@2@@0@QEAV10@AEAV?$allocator@V?$basic_string@DU?$char_traits@D@std@@V?$allocator@D@2@@std@@@0@@Z
	??$_Emplace_back@$$V@?$_Uninitialized_backout_al@V?$allocator@V?$basic_string@DU?$char_traits@D@std@@V?$allocator@D@2@@std@@@std@@@std@@QEAAXXZ
	??$_Emplace_back@AEAV?$basic_string@DU?$char_traits@D@std@@V?$allocator@D@2@@std@@@?$_Uninitialized_backout_al@V?$allocator@V?$basic_string@DU?$char_traits@D@std@@V?$allocator@D@2@@std@@@std@@@std@@QEAAXAEAV?$basic_string@DU?$char_traits@D@std@@V?$allocator@D@2@@1@@Z
	??$_Emplace_back@AEBU?$pair@W4FunctionType@detail@data@matlab@@V?$basic_string@DU?$char_traits@D@std@@V?$allocator@D@2@@std@@@std@@@?$_Uninitialized_backout_al@V?$allocator@U?$pair@W4FunctionType@detail@data@matlab@@V?$basic_string@DU?$char_traits@D@std@@V?$allocator@D@2@@std@@@std@@@std@@@std@@QEAAXAEBU?$pair@W4FunctionType@detail@data@matlab@@V?$basic_string@DU?$char_traits@D@std@@V?$allocator@D@2@@std@@@1@@Z
	??$_Emplace_back@AEBV?$basic_string@DU?$char_traits@D@std@@V?$allocator@D@2@@std@@@?$_Uninitialized_backout_al@V?$allocator@V?$basic_string@DU?$char_traits@D@std@@V?$allocator@D@2@@std@@@std@@@std@@QEAAXAEBV?$basic_string@DU?$char_traits@D@std@@V?$allocator@D@2@@1@@Z
	??$_Emplace_back@AEBVArray@data@matlab@@@?$_Uninitialized_backout_al@V?$allocator@VArray@data@matlab@@@std@@@std@@QEAAXAEBVArray@data@matlab@@@Z
	??$_Emplace_back@V?$basic_string@DU?$char_traits@D@std@@V?$allocator@D@2@@std@@@?$_Uninitialized_backout_al@V?$allocator@V?$basic_string@DU?$char_traits@D@std@@V?$allocator@D@2@@std@@@std@@@std@@QEAAX$$QEAV?$basic_string@DU?$char_traits@D@std@@V?$allocator@D@2@@1@@Z
	??$_Emplace_back_with_unused_capacity@AEBV?$basic_string@DU?$char_traits@D@std@@V?$allocator@D@2@@std@@@?$vector@V?$basic_string@DU?$char_traits@D@std@@V?$allocator@D@2@@std@@V?$allocator@V?$basic_string@DU?$char_traits@D@std@@V?$allocator@D@2@@std@@@2@@std@@AEAAAEAV?$basic_string@DU?$char_traits@D@std@@V?$allocator@D@2@@1@AEBV21@@Z
	??$_Emplace_hint@AEBUIndexEntry@rosbag@@@?$_Tree@V?$_Tset_traits@UIndexEntry@rosbag@@U?$less@UIndexEntry@rosbag@@@std@@V?$allocator@UIndexEntry@rosbag@@@4@$00@std@@@std@@IEAAPEAU?$_Tree_node@UIndexEntry@rosbag@@PEAX@1@QEAU21@AEBUIndexEntry@rosbag@@@Z
	??$_Emplace_one_at_back@AEBV?$basic_string@DU?$char_traits@D@std@@V?$allocator@D@2@@std@@@?$vector@V?$basic_string@DU?$char_traits@D@std@@V?$allocator@D@2@@std@@V?$allocator@V?$basic_string@DU?$char_traits@D@std@@V?$allocator@D@2@@std@@@2@@std@@AEAAAEAV?$basic_string@DU?$char_traits@D@std@@V?$allocator@D@2@@1@AEBV21@@Z
	??$_Emplace_one_at_back@V?$basic_string@DU?$char_traits@D@std@@V?$allocator@D@2@@std@@@?$vector@V?$basic_string@DU?$char_traits@D@std@@V?$allocator@D@2@@std@@V?$allocator@V?$basic_string@DU?$char_traits@D@std@@V?$allocator@D@2@@std@@@2@@std@@AEAAAEAV?$basic_string@DU?$char_traits@D@std@@V?$allocator@D@2@@1@$$QEAV21@@Z
	??$_Emplace_reallocate@AEBV?$basic_string@DU?$char_traits@D@std@@V?$allocator@D@2@@std@@@?$vector@V?$basic_string@DU?$char_traits@D@std@@V?$allocator@D@2@@std@@V?$allocator@V?$basic_string@DU?$char_traits@D@std@@V?$allocator@D@2@@std@@@2@@std@@AEAAPEAV?$basic_string@DU?$char_traits@D@std@@V?$allocator@D@2@@1@QEAV21@AEBV21@@Z
	??$_Emplace_reallocate@V?$basic_string@DU?$char_traits@D@std@@V?$allocator@D@2@@std@@@?$vector@V?$basic_string@DU?$char_traits@D@std@@V?$allocator@D@2@@std@@V?$allocator@V?$basic_string@DU?$char_traits@D@std@@V?$allocator@D@2@@std@@@2@@std@@AEAAPEAV?$basic_string@DU?$char_traits@D@std@@V?$allocator@D@2@@1@QEAV21@$$QEAV21@@Z
	??$_Erase_head@V?$allocator@U?$_Tree_node@U?$pair@$$CBV?$basic_string@DU?$char_traits@D@std@@V?$allocator@D@2@@std@@V12@@std@@PEAX@std@@@std@@@?$_Tree_val@U?$_Tree_simple_types@U?$pair@$$CBV?$basic_string@DU?$char_traits@D@std@@V?$allocator@D@2@@std@@V12@@std@@@std@@@std@@QEAAXAEAV?$allocator@U?$_Tree_node@U?$pair@$$CBV?$basic_string@DU?$char_traits@D@std@@V?$allocator@D@2@@std@@V12@@std@@PEAX@std@@@1@@Z
	??$_Erase_head@V?$allocator@U?$_Tree_node@UIndexEntry@rosbag@@PEAX@std@@@std@@@?$_Tree_val@U?$_Tree_simple_types@UIndexEntry@rosbag@@@std@@@std@@QEAAXAEAV?$allocator@U?$_Tree_node@UIndexEntry@rosbag@@PEAX@std@@@1@@Z
	??$_Erase_tree@V?$allocator@U?$_Tree_node@U?$pair@$$CBV?$basic_string@DU?$char_traits@D@std@@V?$allocator@D@2@@std@@V12@@std@@PEAX@std@@@std@@@?$_Tree_val@U?$_Tree_simple_types@U?$pair@$$CBV?$basic_string@DU?$char_traits@D@std@@V?$allocator@D@2@@std@@V12@@std@@@std@@@std@@QEAAXAEAV?$allocator@U?$_Tree_node@U?$pair@$$CBV?$basic_string@DU?$char_traits@D@std@@V?$allocator@D@2@@std@@V12@@std@@PEAX@std@@@1@PEAU?$_Tree_node@U?$pair@$$CBV?$basic_string@DU?$char_traits@D@std@@V?$allocator@D@2@@std@@V12@@std@@PEAX@1@@Z
	??$_Erase_tree@V?$allocator@U?$_Tree_node@UIndexEntry@rosbag@@PEAX@std@@@std@@@?$_Tree_val@U?$_Tree_simple_types@UIndexEntry@rosbag@@@std@@@std@@QEAAXAEAV?$allocator@U?$_Tree_node@UIndexEntry@rosbag@@PEAX@std@@@1@PEAU?$_Tree_node@UIndexEntry@rosbag@@PEAX@1@@Z
	??$_Erase_tree_and_orphan@V?$allocator@U?$_Tree_node@U?$pair@$$CBV?$basic_string@DU?$char_traits@D@std@@V?$allocator@D@2@@std@@V12@@std@@PEAX@std@@@std@@@?$_Tree_val@U?$_Tree_simple_types@U?$pair@$$CBV?$basic_string@DU?$char_traits@D@std@@V?$allocator@D@2@@std@@V12@@std@@@std@@@std@@QEAAXAEAV?$allocator@U?$_Tree_node@U?$pair@$$CBV?$basic_string@DU?$char_traits@D@std@@V?$allocator@D@2@@std@@V12@@std@@PEAX@std@@@1@PEAU?$_Tree_node@U?$pair@$$CBV?$basic_string@DU?$char_traits@D@std@@V?$allocator@D@2@@std@@V12@@std@@PEAX@1@@Z
	??$_Fill_zero_memset@PEA_J@std@@YAXPEA_J_K@Z
	??$_Find@V?$basic_string@DU?$char_traits@D@std@@V?$allocator@D@2@@std@@@?$_Tree@V?$_Tmap_traits@V?$basic_string@DU?$char_traits@D@std@@V?$allocator@D@2@@std@@IU?$less@V?$basic_string@DU?$char_traits@D@std@@V?$allocator@D@2@@std@@@2@V?$allocator@U?$pair@$$CBV?$basic_string@DU?$char_traits@D@std@@V?$allocator@D@2@@std@@I@std@@@2@$0A@@std@@@std@@AEBAPEAU?$_Tree_node@U?$pair@$$CBV?$basic_string@DU?$char_traits@D@std@@V?$allocator@D@2@@std@@I@std@@PEAX@1@AEBV?$basic_string@DU?$char_traits@D@std@@V?$allocator@D@2@@1@@Z
	??$_Find@V?$basic_string@DU?$char_traits@D@std@@V?$allocator@D@2@@std@@@?$_Tree@V?$_Tmap_traits@V?$basic_string@DU?$char_traits@D@std@@V?$allocator@D@2@@std@@PEAVAbstractMetaObjectBase@impl@ros1_class_loader@@U?$less@V?$basic_string@DU?$char_traits@D@std@@V?$allocator@D@2@@std@@@2@V?$allocator@U?$pair@$$CBV?$basic_string@DU?$char_traits@D@std@@V?$allocator@D@2@@std@@PEAVAbstractMetaObjectBase@impl@ros1_class_loader@@@std@@@2@$0A@@std@@@std@@AEBAPEAU?$_Tree_node@U?$pair@$$CBV?$basic_string@DU?$char_traits@D@std@@V?$allocator@D@2@@std@@PEAVAbstractMetaObjectBase@impl@ros1_class_loader@@@std@@PEAX@1@AEBV?$basic_string@DU?$char_traits@D@std@@V?$allocator@D@2@@1@@Z
	??$_Find@V?$basic_string@DU?$char_traits@D@std@@V?$allocator@D@2@@std@@@?$_Tree@V?$_Tmap_traits@V?$basic_string@DU?$char_traits@D@std@@V?$allocator@D@2@@std@@V?$shared_ptr@VMATLABROSMsgInterfaceBase@@@mwboost@@U?$less@V?$basic_string@DU?$char_traits@D@std@@V?$allocator@D@2@@std@@@2@V?$allocator@U?$pair@$$CBV?$basic_string@DU?$char_traits@D@std@@V?$allocator@D@2@@std@@V?$shared_ptr@VMATLABROSMsgInterfaceBase@@@mwboost@@@std@@@2@$0A@@std@@@std@@AEBAPEAU?$_Tree_node@U?$pair@$$CBV?$basic_string@DU?$char_traits@D@std@@V?$allocator@D@2@@std@@V?$shared_ptr@VMATLABROSMsgInterfaceBase@@@mwboost@@@std@@PEAX@1@AEBV?$basic_string@DU?$char_traits@D@std@@V?$allocator@D@2@@1@@Z
	??$_Find@V?$map@V?$basic_string@DU?$char_traits@D@std@@V?$allocator@D@2@@std@@V12@U?$less@V?$basic_string@DU?$char_traits@D@std@@V?$allocator@D@2@@std@@@2@V?$allocator@U?$pair@$$CBV?$basic_string@DU?$char_traits@D@std@@V?$allocator@D@2@@std@@V12@@std@@@2@@std@@@?$_Tree@V?$_Tmap_traits@V?$map@V?$basic_string@DU?$char_traits@D@std@@V?$allocator@D@2@@std@@V12@U?$less@V?$basic_string@DU?$char_traits@D@std@@V?$allocator@D@2@@std@@@2@V?$allocator@U?$pair@$$CBV?$basic_string@DU?$char_traits@D@std@@V?$allocator@D@2@@std@@V12@@std@@@2@@std@@IU?$less@V?$map@V?$basic_string@DU?$char_traits@D@std@@V?$allocator@D@2@@std@@V12@U?$less@V?$basic_string@DU?$char_traits@D@std@@V?$allocator@D@2@@std@@@2@V?$allocator@U?$pair@$$CBV?$basic_string@DU?$char_traits@D@std@@V?$allocator@D@2@@std@@V12@@std@@@2@@std@@@2@V?$allocator@U?$pair@$$CBV?$map@V?$basic_string@DU?$char_traits@D@std@@V?$allocator@D@2@@std@@V12@U?$less@V?$basic_string@DU?$char_traits@D@std@@V?$allocator@D@2@@std@@@2@V?$allocator@U?$pair@$$CBV?$basic_string@DU?$char_traits@D@std@@V?$allocator@D@2@@std@@V12@@std@@@2@@std@@I@std@@@2@$0A@@std@@@std@@AEBAPEAU?$_Tree_node@U?$pair@$$CBV?$map@V?$basic_string@DU?$char_traits@D@std@@V?$allocator@D@2@@std@@V12@U?$less@V?$basic_string@DU?$char_traits@D@std@@V?$allocator@D@2@@std@@@2@V?$allocator@U?$pair@$$CBV?$basic_string@DU?$char_traits@D@std@@V?$allocator@D@2@@std@@V12@@std@@@2@@std@@I@std@@PEAX@1@AEBV?$map@V?$basic_string@DU?$char_traits@D@std@@V?$allocator@D@2@@std@@V12@U?$less@V?$basic_string@DU?$char_traits@D@std@@V?$allocator@D@2@@std@@@2@V?$allocator@U?$pair@$$CBV?$basic_string@DU?$char_traits@D@std@@V?$allocator@D@2@@std@@V12@@std@@@2@@1@@Z
	??$_Find_hint@UIndexEntry@rosbag@@@?$_Tree@V?$_Tset_traits@UIndexEntry@rosbag@@U?$less@UIndexEntry@rosbag@@@std@@V?$allocator@UIndexEntry@rosbag@@@4@$00@std@@@std@@IEBA?AU?$_Tree_find_hint_result@PEAU?$_Tree_node@UIndexEntry@rosbag@@PEAX@std@@@1@QEAU?$_Tree_node@UIndexEntry@rosbag@@PEAX@1@AEBUIndexEntry@rosbag@@@Z
	??$_Find_lower_bound@I@?$_Tree@V?$_Tmap_traits@IIU?$less@I@std@@V?$allocator@U?$pair@$$CBII@std@@@2@$0A@@std@@@std@@IEBA?AU?$_Tree_find_result@PEAU?$_Tree_node@U?$pair@$$CBII@std@@PEAX@std@@@1@AEBI@Z
	??$_Find_lower_bound@I@?$_Tree@V?$_Tmap_traits@IPEAUConnectionInfo@rosbag@@U?$less@I@std@@V?$allocator@U?$pair@$$CBIPEAUConnectionInfo@rosbag@@@std@@@4@$0A@@std@@@std@@IEBA?AU?$_Tree_find_result@PEAU?$_Tree_node@U?$pair@$$CBIPEAUConnectionInfo@rosbag@@@std@@PEAX@std@@@1@AEBI@Z
	??$_Find_lower_bound@I@?$_Tree@V?$_Tmap_traits@IV?$multiset@UIndexEntry@rosbag@@U?$less@UIndexEntry@rosbag@@@std@@V?$allocator@UIndexEntry@rosbag@@@4@@std@@U?$less@I@2@V?$allocator@U?$pair@$$CBIV?$multiset@UIndexEntry@rosbag@@U?$less@UIndexEntry@rosbag@@@std@@V?$allocator@UIndexEntry@rosbag@@@4@@std@@@std@@@2@$0A@@std@@@std@@IEBA?AU?$_Tree_find_result@PEAU?$_Tree_node@U?$pair@$$CBIV?$multiset@UIndexEntry@rosbag@@U?$less@UIndexEntry@rosbag@@@std@@V?$allocator@UIndexEntry@rosbag@@@4@@std@@@std@@PEAX@std@@@1@AEBI@Z
	??$_Find_lower_bound@UIndexEntry@rosbag@@@?$_Tree@V?$_Tset_traits@UIndexEntry@rosbag@@U?$less@UIndexEntry@rosbag@@@std@@V?$allocator@UIndexEntry@rosbag@@@4@$00@std@@@std@@IEBA?AU?$_Tree_find_result@PEAU?$_Tree_node@UIndexEntry@rosbag@@PEAX@std@@@1@AEBUIndexEntry@rosbag@@@Z
	??$_Find_lower_bound@V?$basic_string@DU?$char_traits@D@std@@V?$allocator@D@2@@std@@@?$_Tree@V?$_Tmap_traits@V?$basic_string@DU?$char_traits@D@std@@V?$allocator@D@2@@std@@IU?$less@V?$basic_string@DU?$char_traits@D@std@@V?$allocator@D@2@@std@@@2@V?$allocator@U?$pair@$$CBV?$basic_string@DU?$char_traits@D@std@@V?$allocator@D@2@@std@@I@std@@@2@$0A@@std@@@std@@IEBA?AU?$_Tree_find_result@PEAU?$_Tree_node@U?$pair@$$CBV?$basic_string@DU?$char_traits@D@std@@V?$allocator@D@2@@std@@I@std@@PEAX@std@@@1@AEBV?$basic_string@DU?$char_traits@D@std@@V?$allocator@D@2@@1@@Z
	??$_Find_lower_bound@V?$basic_string@DU?$char_traits@D@std@@V?$allocator@D@2@@std@@@?$_Tree@V?$_Tmap_traits@V?$basic_string@DU?$char_traits@D@std@@V?$allocator@D@2@@std@@PEAVAbstractMetaObjectBase@impl@ros1_class_loader@@U?$less@V?$basic_string@DU?$char_traits@D@std@@V?$allocator@D@2@@std@@@2@V?$allocator@U?$pair@$$CBV?$basic_string@DU?$char_traits@D@std@@V?$allocator@D@2@@std@@PEAVAbstractMetaObjectBase@impl@ros1_class_loader@@@std@@@2@$0A@@std@@@std@@IEBA?AU?$_Tree_find_result@PEAU?$_Tree_node@U?$pair@$$CBV?$basic_string@DU?$char_traits@D@std@@V?$allocator@D@2@@std@@PEAVAbstractMetaObjectBase@impl@ros1_class_loader@@@std@@PEAX@std@@@1@AEBV?$basic_string@DU?$char_traits@D@std@@V?$allocator@D@2@@1@@Z
	??$_Find_lower_bound@V?$basic_string@DU?$char_traits@D@std@@V?$allocator@D@2@@std@@@?$_Tree@V?$_Tmap_traits@V?$basic_string@DU?$char_traits@D@std@@V?$allocator@D@2@@std@@V12@U?$less@V?$basic_string@DU?$char_traits@D@std@@V?$allocator@D@2@@std@@@2@V?$allocator@U?$pair@$$CBV?$basic_string@DU?$char_traits@D@std@@V?$allocator@D@2@@std@@V12@@std@@@2@$0A@@std@@@std@@IEBA?AU?$_Tree_find_result@PEAU?$_Tree_node@U?$pair@$$CBV?$basic_string@DU?$char_traits@D@std@@V?$allocator@D@2@@std@@V12@@std@@PEAX@std@@@1@AEBV?$basic_string@DU?$char_traits@D@std@@V?$allocator@D@2@@1@@Z
	??$_Find_lower_bound@V?$basic_string@DU?$char_traits@D@std@@V?$allocator@D@2@@std@@@?$_Tree@V?$_Tmap_traits@V?$basic_string@DU?$char_traits@D@std@@V?$allocator@D@2@@std@@V?$shared_ptr@VMATLABROSMsgInterfaceBase@@@mwboost@@U?$less@V?$basic_string@DU?$char_traits@D@std@@V?$allocator@D@2@@std@@@2@V?$allocator@U?$pair@$$CBV?$basic_string@DU?$char_traits@D@std@@V?$allocator@D@2@@std@@V?$shared_ptr@VMATLABROSMsgInterfaceBase@@@mwboost@@@std@@@2@$0A@@std@@@std@@IEBA?AU?$_Tree_find_result@PEAU?$_Tree_node@U?$pair@$$CBV?$basic_string@DU?$char_traits@D@std@@V?$allocator@D@2@@std@@V?$shared_ptr@VMATLABROSMsgInterfaceBase@@@mwboost@@@std@@PEAX@std@@@1@AEBV?$basic_string@DU?$char_traits@D@std@@V?$allocator@D@2@@1@@Z
	??$_Find_lower_bound@V?$map@V?$basic_string@DU?$char_traits@D@std@@V?$allocator@D@2@@std@@V12@U?$less@V?$basic_string@DU?$char_traits@D@std@@V?$allocator@D@2@@std@@@2@V?$allocator@U?$pair@$$CBV?$basic_string@DU?$char_traits@D@std@@V?$allocator@D@2@@std@@V12@@std@@@2@@std@@@?$_Tree@V?$_Tmap_traits@V?$map@V?$basic_string@DU?$char_traits@D@std@@V?$allocator@D@2@@std@@V12@U?$less@V?$basic_string@DU?$char_traits@D@std@@V?$allocator@D@2@@std@@@2@V?$allocator@U?$pair@$$CBV?$basic_string@DU?$char_traits@D@std@@V?$allocator@D@2@@std@@V12@@std@@@2@@std@@IU?$less@V?$map@V?$basic_string@DU?$char_traits@D@std@@V?$allocator@D@2@@std@@V12@U?$less@V?$basic_string@DU?$char_traits@D@std@@V?$allocator@D@2@@std@@@2@V?$allocator@U?$pair@$$CBV?$basic_string@DU?$char_traits@D@std@@V?$allocator@D@2@@std@@V12@@std@@@2@@std@@@2@V?$allocator@U?$pair@$$CBV?$map@V?$basic_string@DU?$char_traits@D@std@@V?$allocator@D@2@@std@@V12@U?$less@V?$basic_string@DU?$char_traits@D@std@@V?$allocator@D@2@@std@@@2@V?$allocator@U?$pair@$$CBV?$basic_string@DU?$char_traits@D@std@@V?$allocator@D@2@@std@@V12@@std@@@2@@std@@I@std@@@2@$0A@@std@@@std@@IEBA?AU?$_Tree_find_result@PEAU?$_Tree_node@U?$pair@$$CBV?$map@V?$basic_string@DU?$char_traits@D@std@@V?$allocator@D@2@@std@@V12@U?$less@V?$basic_string@DU?$char_traits@D@std@@V?$allocator@D@2@@std@@@2@V?$allocator@U?$pair@$$CBV?$basic_string@DU?$char_traits@D@std@@V?$allocator@D@2@@std@@V12@@std@@@2@@std@@I@std@@PEAX@std@@@1@AEBV?$map@V?$basic_string@DU?$char_traits@D@std@@V?$allocator@D@2@@std@@V12@U?$less@V?$basic_string@DU?$char_traits@D@std@@V?$allocator@D@2@@std@@@2@V?$allocator@U?$pair@$$CBV?$basic_string@DU?$char_traits@D@std@@V?$allocator@D@2@@std@@V12@@std@@@2@@1@@Z
	??$_Find_upper_bound@UIndexEntry@rosbag@@@?$_Tree@V?$_Tset_traits@UIndexEntry@rosbag@@U?$less@UIndexEntry@rosbag@@@std@@V?$allocator@UIndexEntry@rosbag@@@4@$00@std@@@std@@IEBA?AU?$_Tree_find_result@PEAU?$_Tree_node@UIndexEntry@rosbag@@PEAX@std@@@1@AEBUIndexEntry@rosbag@@@Z
	??$_Freenode@V?$allocator@U?$_Tree_node@U?$pair@$$CBV?$basic_string@DU?$char_traits@D@std@@V?$allocator@D@2@@std@@V12@@std@@PEAX@std@@@std@@@?$_Tree_node@U?$pair@$$CBV?$basic_string@DU?$char_traits@D@std@@V?$allocator@D@2@@std@@V12@@std@@PEAX@std@@SAXAEAV?$allocator@U?$_Tree_node@U?$pair@$$CBV?$basic_string@DU?$char_traits@D@std@@V?$allocator@D@2@@std@@V12@@std@@PEAX@std@@@1@PEAU01@@Z
	??$_Getvals@_W@?$time_get@DV?$istreambuf_iterator@DU?$char_traits@D@std@@@std@@@std@@IEAAX_WAEBV_Locinfo@1@@Z
	??$_Getvals@_W@?$time_get@_WV?$istreambuf_iterator@_WU?$char_traits@_W@std@@@std@@@std@@IEAAX_WAEBV_Locinfo@1@@Z
	??$_Insert_counted_range@PEAV?$basic_string@DU?$char_traits@D@std@@V?$allocator@D@2@@std@@@?$vector@V?$basic_string@DU?$char_traits@D@std@@V?$allocator@D@2@@std@@V?$allocator@V?$basic_string@DU?$char_traits@D@std@@V?$allocator@D@2@@std@@@2@@std@@AEAAXV?$_Vector_const_iterator@V?$_Vector_val@U?$_Simple_types@V?$basic_string@DU?$char_traits@D@std@@V?$allocator@D@2@@std@@@std@@@std@@@1@PEAV?$basic_string@DU?$char_traits@D@std@@V?$allocator@D@2@@1@_K@Z
	??$_Is_all_bits_zero@_J@std@@YA_NAEB_J@Z
	??$_Maklocstr@D@std@@YAPEADPEBDPEADAEBU_Cvtvec@@@Z
	??$_Maklocstr@_W@std@@YAPEA_WPEBDPEA_WAEBU_Cvtvec@@@Z
	??$_Move_unchecked@PEAV?$basic_string@DU?$char_traits@D@std@@V?$allocator@D@2@@std@@PEAV12@@std@@YAPEAV?$basic_string@DU?$char_traits@D@std@@V?$allocator@D@2@@0@PEAV10@00@Z
	??$_Reallocate_for@V<lambda_66f57f934f28d61049862f64df852ff0>@@PEBD@?$basic_string@DU?$char_traits@D@std@@V?$allocator@D@2@@std@@AEAAAEAV01@_KV<lambda_66f57f934f28d61049862f64df852ff0>@@PEBD@Z
	??$_Reallocate_grow_by@V<lambda_319d5e083f45f90dcdce5dce53cbb275>@@D@?$basic_string@DU?$char_traits@D@std@@V?$allocator@D@2@@std@@AEAAAEAV01@_KV<lambda_319d5e083f45f90dcdce5dce53cbb275>@@D@Z
	??$_Reallocate_grow_by@V<lambda_65e615be2a453ca0576c979606f46740>@@PEBD_K@?$basic_string@DU?$char_traits@D@std@@V?$allocator@D@2@@std@@AEAAAEAV01@_KV<lambda_65e615be2a453ca0576c979606f46740>@@PEBD_K@Z
	??$_Reallocate_grow_by@V<lambda_e1befb086ad3257e3f042a63030725f7>@@_KD@?$basic_string@DU?$char_traits@D@std@@V?$allocator@D@2@@std@@AEAAAEAV01@_KV<lambda_e1befb086ad3257e3f042a63030725f7>@@_KD@Z
	??$_Resize@U_Value_init_tag@std@@@?$vector@NV?$allocator@N@std@@@std@@AEAAX_KAEBU_Value_init_tag@1@@Z
	??$_Resize@U_Value_init_tag@std@@@?$vector@V?$basic_string@DU?$char_traits@D@std@@V?$allocator@D@2@@std@@V?$allocator@V?$basic_string@DU?$char_traits@D@std@@V?$allocator@D@2@@std@@@2@@std@@AEAAX_KAEBU_Value_init_tag@1@@Z
	??$_Resize_reallocate@U_Value_init_tag@std@@@?$vector@NV?$allocator@N@std@@@std@@AEAAX_KAEBU_Value_init_tag@1@@Z
	??$_Resize_reallocate@U_Value_init_tag@std@@@?$vector@V?$basic_string@DU?$char_traits@D@std@@V?$allocator@D@2@@std@@V?$allocator@V?$basic_string@DU?$char_traits@D@std@@V?$allocator@D@2@@std@@@2@@std@@AEAAX_KAEBU_Value_init_tag@1@@Z
	??$_Setpd@PEAVArrayFactoryImpl@impl@data@matlab@@V<lambda_a4c5f97d4391fb4c09103a727c16defd>@@@?$shared_ptr@VArrayFactoryImpl@impl@data@matlab@@@std@@AEAAXQEAVArrayFactoryImpl@impl@data@matlab@@V<lambda_a4c5f97d4391fb4c09103a727c16defd>@@@Z
	??$_Setpd@PEAVArrayImpl@impl@data@matlab@@V<lambda_18bde30140702ba20a566c9dc393b8c0>@@@?$shared_ptr@VArrayImpl@impl@data@matlab@@@std@@AEAAXQEAVArrayImpl@impl@data@matlab@@V<lambda_18bde30140702ba20a566c9dc393b8c0>@@@Z
	??$_Setpd@PEAVArrayImpl@impl@data@matlab@@V<lambda_49bc69670bef5877f460780ec06c4b58>@@@?$shared_ptr@VArrayImpl@impl@data@matlab@@@std@@AEAAXQEAVArrayImpl@impl@data@matlab@@V<lambda_49bc69670bef5877f460780ec06c4b58>@@@Z
	??$_Setpd@PEAVArrayImpl@impl@data@matlab@@V<lambda_7221354e2161a523b28f93cf96116df6>@@@?$shared_ptr@VArrayImpl@impl@data@matlab@@@std@@AEAAXQEAVArrayImpl@impl@data@matlab@@V<lambda_7221354e2161a523b28f93cf96116df6>@@@Z
	??$_Setpd@PEAVArrayImpl@impl@data@matlab@@V<lambda_8717c4bee2934487c85bc1f9f4a10ac1>@@@?$shared_ptr@VArrayImpl@impl@data@matlab@@@std@@AEAAXQEAVArrayImpl@impl@data@matlab@@V<lambda_8717c4bee2934487c85bc1f9f4a10ac1>@@@Z
	??$_Setpd@PEAVArrayImpl@impl@data@matlab@@V<lambda_e914d30eff449a87d58ddc0a6ee00afb>@@@?$shared_ptr@VArrayImpl@impl@data@matlab@@@std@@AEAAXQEAVArrayImpl@impl@data@matlab@@V<lambda_e914d30eff449a87d58ddc0a6ee00afb>@@@Z
	??$_Setpd@PEAVIteratorImpl@detail@data@matlab@@V<lambda_2338e59a205dcd23a85a74566c35c54c>@@@?$shared_ptr@VIteratorImpl@detail@data@matlab@@@std@@AEAAXQEAVIteratorImpl@detail@data@matlab@@V<lambda_2338e59a205dcd23a85a74566c35c54c>@@@Z
	??$_Setpd@PEAVIteratorImpl@detail@data@matlab@@V<lambda_5f4fcb290926e6b66c490376dc93f8ff>@@@?$shared_ptr@VIteratorImpl@detail@data@matlab@@@std@@AEAAXQEAVIteratorImpl@detail@data@matlab@@V<lambda_5f4fcb290926e6b66c490376dc93f8ff>@@@Z
	??$_Setpd@PEAVIteratorImpl@detail@data@matlab@@V<lambda_7b2e123050acc360989b02063f1710cc>@@@?$shared_ptr@VIteratorImpl@detail@data@matlab@@@std@@AEAAXQEAVIteratorImpl@detail@data@matlab@@V<lambda_7b2e123050acc360989b02063f1710cc>@@@Z
	??$_Setpd@PEAVIteratorImpl@detail@data@matlab@@V<lambda_f604b6d186b888d49827c9591affdc3a>@@@?$shared_ptr@VIteratorImpl@detail@data@matlab@@@std@@AEAAXQEAVIteratorImpl@detail@data@matlab@@V<lambda_f604b6d186b888d49827c9591affdc3a>@@@Z
	??$_Setpd@PEAVNameListImpl@detail@data@matlab@@V<lambda_9f3a4d0362104a3bede0405fafec76e1>@@@?$shared_ptr@VNameListImpl@detail@data@matlab@@@std@@AEAAXQEAVNameListImpl@detail@data@matlab@@V<lambda_9f3a4d0362104a3bede0405fafec76e1>@@@Z
	??$_Setpd@PEAVReferenceImpl@detail@data@matlab@@V<lambda_2615407b98e1f3a14023b76f0dedc381>@@@?$shared_ptr@VReferenceImpl@detail@data@matlab@@@std@@AEAAXQEAVReferenceImpl@detail@data@matlab@@V<lambda_2615407b98e1f3a14023b76f0dedc381>@@@Z
	??$_Try_emplace@AEBI$$V@?$map@IIU?$less@I@std@@V?$allocator@U?$pair@$$CBII@std@@@2@@std@@AEAA?AU?$pair@PEAU?$_Tree_node@U?$pair@$$CBII@std@@PEAX@std@@_N@1@AEBI@Z
	??$_Try_emplace@AEBI$$V@?$map@IPEAUConnectionInfo@rosbag@@U?$less@I@std@@V?$allocator@U?$pair@$$CBIPEAUConnectionInfo@rosbag@@@std@@@4@@std@@AEAA?AU?$pair@PEAU?$_Tree_node@U?$pair@$$CBIPEAUConnectionInfo@rosbag@@@std@@PEAX@std@@_N@1@AEBI@Z
	??$_Try_emplace@AEBI$$V@?$map@IV?$multiset@UIndexEntry@rosbag@@U?$less@UIndexEntry@rosbag@@@std@@V?$allocator@UIndexEntry@rosbag@@@4@@std@@U?$less@I@2@V?$allocator@U?$pair@$$CBIV?$multiset@UIndexEntry@rosbag@@U?$less@UIndexEntry@rosbag@@@std@@V?$allocator@UIndexEntry@rosbag@@@4@@std@@@std@@@2@@std@@AEAA?AU?$pair@PEAU?$_Tree_node@U?$pair@$$CBIV?$multiset@UIndexEntry@rosbag@@U?$less@UIndexEntry@rosbag@@@std@@V?$allocator@UIndexEntry@rosbag@@@4@@std@@@std@@PEAX@std@@_N@1@AEBI@Z
	??$_Try_emplace@AEBV?$basic_string@DU?$char_traits@D@std@@V?$allocator@D@2@@std@@$$V@?$map@V?$basic_string@DU?$char_traits@D@std@@V?$allocator@D@2@@std@@IU?$less@V?$basic_string@DU?$char_traits@D@std@@V?$allocator@D@2@@std@@@2@V?$allocator@U?$pair@$$CBV?$basic_string@DU?$char_traits@D@std@@V?$allocator@D@2@@std@@I@std@@@2@@std@@AEAA?AU?$pair@PEAU?$_Tree_node@U?$pair@$$CBV?$basic_string@DU?$char_traits@D@std@@V?$allocator@D@2@@std@@I@std@@PEAX@std@@_N@1@AEBV?$basic_string@DU?$char_traits@D@std@@V?$allocator@D@2@@1@@Z
	??$_Try_emplace@AEBV?$basic_string@DU?$char_traits@D@std@@V?$allocator@D@2@@std@@$$V@?$map@V?$basic_string@DU?$char_traits@D@std@@V?$allocator@D@2@@std@@PEAVAbstractMetaObjectBase@impl@ros1_class_loader@@U?$less@V?$basic_string@DU?$char_traits@D@std@@V?$allocator@D@2@@std@@@2@V?$allocator@U?$pair@$$CBV?$basic_string@DU?$char_traits@D@std@@V?$allocator@D@2@@std@@PEAVAbstractMetaObjectBase@impl@ros1_class_loader@@@std@@@2@@std@@AEAA?AU?$pair@PEAU?$_Tree_node@U?$pair@$$CBV?$basic_string@DU?$char_traits@D@std@@V?$allocator@D@2@@std@@PEAVAbstractMetaObjectBase@impl@ros1_class_loader@@@std@@PEAX@std@@_N@1@AEBV?$basic_string@DU?$char_traits@D@std@@V?$allocator@D@2@@1@@Z
	??$_Try_emplace@AEBV?$basic_string@DU?$char_traits@D@std@@V?$allocator@D@2@@std@@$$V@?$map@V?$basic_string@DU?$char_traits@D@std@@V?$allocator@D@2@@std@@V12@U?$less@V?$basic_string@DU?$char_traits@D@std@@V?$allocator@D@2@@std@@@2@V?$allocator@U?$pair@$$CBV?$basic_string@DU?$char_traits@D@std@@V?$allocator@D@2@@std@@V12@@std@@@2@@std@@AEAA?AU?$pair@PEAU?$_Tree_node@U?$pair@$$CBV?$basic_string@DU?$char_traits@D@std@@V?$allocator@D@2@@std@@V12@@std@@PEAX@std@@_N@1@AEBV?$basic_string@DU?$char_traits@D@std@@V?$allocator@D@2@@1@@Z
	??$_Try_emplace@AEBV?$basic_string@DU?$char_traits@D@std@@V?$allocator@D@2@@std@@$$V@?$map@V?$basic_string@DU?$char_traits@D@std@@V?$allocator@D@2@@std@@V?$shared_ptr@VMATLABROSMsgInterfaceBase@@@mwboost@@U?$less@V?$basic_string@DU?$char_traits@D@std@@V?$allocator@D@2@@std@@@2@V?$allocator@U?$pair@$$CBV?$basic_string@DU?$char_traits@D@std@@V?$allocator@D@2@@std@@V?$shared_ptr@VMATLABROSMsgInterfaceBase@@@mwboost@@@std@@@2@@std@@AEAA?AU?$pair@PEAU?$_Tree_node@U?$pair@$$CBV?$basic_string@DU?$char_traits@D@std@@V?$allocator@D@2@@std@@V?$shared_ptr@VMATLABROSMsgInterfaceBase@@@mwboost@@@std@@PEAX@std@@_N@1@AEBV?$basic_string@DU?$char_traits@D@std@@V?$allocator@D@2@@1@@Z
	??$_Try_emplace@AEBV?$map@V?$basic_string@DU?$char_traits@D@std@@V?$allocator@D@2@@std@@V12@U?$less@V?$basic_string@DU?$char_traits@D@std@@V?$allocator@D@2@@std@@@2@V?$allocator@U?$pair@$$CBV?$basic_string@DU?$char_traits@D@std@@V?$allocator@D@2@@std@@V12@@std@@@2@@std@@$$V@?$map@V?$map@V?$basic_string@DU?$char_traits@D@std@@V?$allocator@D@2@@std@@V12@U?$less@V?$basic_string@DU?$char_traits@D@std@@V?$allocator@D@2@@std@@@2@V?$allocator@U?$pair@$$CBV?$basic_string@DU?$char_traits@D@std@@V?$allocator@D@2@@std@@V12@@std@@@2@@std@@IU?$less@V?$map@V?$basic_string@DU?$char_traits@D@std@@V?$allocator@D@2@@std@@V12@U?$less@V?$basic_string@DU?$char_traits@D@std@@V?$allocator@D@2@@std@@@2@V?$allocator@U?$pair@$$CBV?$basic_string@DU?$char_traits@D@std@@V?$allocator@D@2@@std@@V12@@std@@@2@@std@@@2@V?$allocator@U?$pair@$$CBV?$map@V?$basic_string@DU?$char_traits@D@std@@V?$allocator@D@2@@std@@V12@U?$less@V?$basic_string@DU?$char_traits@D@std@@V?$allocator@D@2@@std@@@2@V?$allocator@U?$pair@$$CBV?$basic_string@DU?$char_traits@D@std@@V?$allocator@D@2@@std@@V12@@std@@@2@@std@@I@std@@@2@@std@@AEAA?AU?$pair@PEAU?$_Tree_node@U?$pair@$$CBV?$map@V?$basic_string@DU?$char_traits@D@std@@V?$allocator@D@2@@std@@V12@U?$less@V?$basic_string@DU?$char_traits@D@std@@V?$allocator@D@2@@std@@@2@V?$allocator@U?$pair@$$CBV?$basic_string@DU?$char_traits@D@std@@V?$allocator@D@2@@std@@V12@@std@@@2@@std@@I@std@@PEAX@std@@_N@1@AEBV?$map@V?$basic_string@DU?$char_traits@D@std@@V?$allocator@D@2@@std@@V12@U?$less@V?$basic_string@DU?$char_traits@D@std@@V?$allocator@D@2@@std@@@2@V?$allocator@U?$pair@$$CBV?$basic_string@DU?$char_traits@D@std@@V?$allocator@D@2@@std@@V12@@std@@@2@@1@@Z
	??$_Try_emplace@V?$basic_string@DU?$char_traits@D@std@@V?$allocator@D@2@@std@@$$V@?$map@V?$basic_string@DU?$char_traits@D@std@@V?$allocator@D@2@@std@@V12@U?$less@V?$basic_string@DU?$char_traits@D@std@@V?$allocator@D@2@@std@@@2@V?$allocator@U?$pair@$$CBV?$basic_string@DU?$char_traits@D@std@@V?$allocator@D@2@@std@@V12@@std@@@2@@std@@AEAA?AU?$pair@PEAU?$_Tree_node@U?$pair@$$CBV?$basic_string@DU?$char_traits@D@std@@V?$allocator@D@2@@std@@V12@@std@@PEAX@std@@_N@1@$$QEAV?$basic_string@DU?$char_traits@D@std@@V?$allocator@D@2@@1@@Z
	??$_Uninitialized_copy@PEANPEANV?$allocator@N@std@@@std@@YAPEANPEAN00AEAV?$allocator@N@0@@Z
	??$_Uninitialized_copy@PEAV?$basic_string@DU?$char_traits@D@std@@V?$allocator@D@2@@std@@PEAV12@V?$allocator@V?$basic_string@DU?$char_traits@D@std@@V?$allocator@D@2@@std@@@2@@std@@YAPEAV?$basic_string@DU?$char_traits@D@std@@V?$allocator@D@2@@0@PEAV10@00AEAV?$allocator@V?$basic_string@DU?$char_traits@D@std@@V?$allocator@D@2@@std@@@0@@Z
	??$_Uninitialized_copy@PEA_JPEA_JV?$allocator@_J@std@@@std@@YAPEA_JPEA_J00AEAV?$allocator@_J@0@@Z
	??$_Uninitialized_copy@PEA_KPEA_KV?$allocator@_K@std@@@std@@YAPEA_KPEA_K00AEAV?$allocator@_K@0@@Z
	??$_Uninitialized_copy@PEBU?$pair@W4FunctionType@detail@data@matlab@@V?$basic_string@DU?$char_traits@D@std@@V?$allocator@D@2@@std@@@std@@PEBU12@V?$allocator@U?$pair@W4FunctionType@detail@data@matlab@@V?$basic_string@DU?$char_traits@D@std@@V?$allocator@D@2@@std@@@std@@@2@@std@@YAPEAU?$pair@W4FunctionType@detail@data@matlab@@V?$basic_string@DU?$char_traits@D@std@@V?$allocator@D@2@@std@@@0@PEBU10@0PEAU10@AEAV?$allocator@U?$pair@W4FunctionType@detail@data@matlab@@V?$basic_string@DU?$char_traits@D@std@@V?$allocator@D@2@@std@@@std@@@0@@Z
	??$_Uninitialized_copy@PEBV?$basic_string@DU?$char_traits@D@std@@V?$allocator@D@2@@std@@PEBV12@V?$allocator@V?$basic_string@DU?$char_traits@D@std@@V?$allocator@D@2@@std@@@2@@std@@YAPEAV?$basic_string@DU?$char_traits@D@std@@V?$allocator@D@2@@0@PEBV10@0PEAV10@AEAV?$allocator@V?$basic_string@DU?$char_traits@D@std@@V?$allocator@D@2@@std@@@0@@Z
	??$_Uninitialized_copy@PEBVArray@data@matlab@@PEBV123@V?$allocator@VArray@data@matlab@@@std@@@std@@YAPEAVArray@data@matlab@@PEBV123@0PEAV123@AEAV?$allocator@VArray@data@matlab@@@0@@Z
	??$_Uninitialized_copy@PEB_KPEB_KV?$allocator@_K@std@@@std@@YAPEA_KPEB_K0PEA_KAEAV?$allocator@_K@0@@Z
	??$_Uninitialized_copy_n@PEANV?$allocator@N@std@@@std@@YAPEANPEAN_K0AEAV?$allocator@N@0@@Z
	??$_Uninitialized_copy_n@PEAV?$basic_string@DU?$char_traits@D@std@@V?$allocator@D@2@@std@@V?$allocator@V?$basic_string@DU?$char_traits@D@std@@V?$allocator@D@2@@std@@@2@@std@@YAPEAV?$basic_string@DU?$char_traits@D@std@@V?$allocator@D@2@@0@PEAV10@_K0AEAV?$allocator@V?$basic_string@DU?$char_traits@D@std@@V?$allocator@D@2@@std@@@0@@Z
	??$_Uninitialized_fill_n@V?$allocator@_J@std@@@std@@YAPEA_JPEA_J_KAEB_JAEAV?$allocator@_J@0@@Z
	??$_Uninitialized_move@PEANV?$allocator@N@std@@@std@@YAPEANQEAN0PEANAEAV?$allocator@N@0@@Z
	??$_Uninitialized_move@PEAV?$basic_string@DU?$char_traits@D@std@@V?$allocator@D@2@@std@@V?$allocator@V?$basic_string@DU?$char_traits@D@std@@V?$allocator@D@2@@std@@@2@@std@@YAPEAV?$basic_string@DU?$char_traits@D@std@@V?$allocator@D@2@@0@QEAV10@0PEAV10@AEAV?$allocator@V?$basic_string@DU?$char_traits@D@std@@V?$allocator@D@2@@std@@@0@@Z
	??$_Uninitialized_value_construct_n@V?$allocator@N@std@@@std@@YAPEANPEAN_KAEAV?$allocator@N@0@@Z
	??$_Uninitialized_value_construct_n@V?$allocator@V?$basic_string@DU?$char_traits@D@std@@V?$allocator@D@2@@std@@@std@@@std@@YAPEAV?$basic_string@DU?$char_traits@D@std@@V?$allocator@D@2@@0@PEAV10@_KAEAV?$allocator@V?$basic_string@DU?$char_traits@D@std@@V?$allocator@D@2@@std@@@0@@Z
	??$_Zero_range@PEAN@std@@YAPEANQEAN0@Z
	??$advertise@U?$msg_cm_@V?$allocator@X@std@@@cm@@@NodeHandle@ros@@QEAA?AVPublisher@1@AEBV?$basic_string@DU?$char_traits@D@std@@V?$allocator@D@2@@std@@I_N@Z
	??$allInOne@UIStream@serialization@ros@@AEAU?$Header_@V?$allocator@X@std@@@std_msgs@@@?$Serializer@U?$Header_@V?$allocator@X@std@@@std_msgs@@@serialization@ros@@SAXAEAUIStream@12@AEAU?$Header_@V?$allocator@X@std@@@std_msgs@@@Z
	??$allInOne@UIStream@serialization@ros@@AEAU?$msg_cm_@V?$allocator@X@std@@@cm@@@?$Serializer@U?$msg_cm_@V?$allocator@X@std@@@cm@@@serialization@ros@@SAXAEAUIStream@12@AEAU?$msg_cm_@V?$allocator@X@std@@@cm@@@Z
	??$allInOne@ULStream@serialization@ros@@AEBU?$Header_@V?$allocator@X@std@@@std_msgs@@@?$Serializer@U?$Header_@V?$allocator@X@std@@@std_msgs@@@serialization@ros@@SAXAEAULStream@12@AEBU?$Header_@V?$allocator@X@std@@@std_msgs@@@Z
	??$allInOne@ULStream@serialization@ros@@AEBU?$msg_cm_@V?$allocator@X@std@@@cm@@@?$Serializer@U?$msg_cm_@V?$allocator@X@std@@@cm@@@serialization@ros@@SAXAEAULStream@12@AEBU?$msg_cm_@V?$allocator@X@std@@@cm@@@Z
	??$allInOne@UOStream@serialization@ros@@AEBU?$Header_@V?$allocator@X@std@@@std_msgs@@@?$Serializer@U?$Header_@V?$allocator@X@std@@@std_msgs@@@serialization@ros@@SAXAEAUOStream@12@AEBU?$Header_@V?$allocator@X@std@@@std_msgs@@@Z
	??$allInOne@UOStream@serialization@ros@@AEBU?$msg_cm_@V?$allocator@X@std@@@cm@@@?$Serializer@U?$msg_cm_@V?$allocator@X@std@@@cm@@@serialization@ros@@SAXAEAUOStream@12@AEBU?$msg_cm_@V?$allocator@X@std@@@cm@@@Z
	??$assign_to@U?$DefaultMessageCreator@U?$msg_cm_@V?$allocator@X@std@@@cm@@@ros@@@?$function0@V?$shared_ptr@U?$msg_cm_@V?$allocator@X@std@@@cm@@@mwboost@@@mwboost@@AEAAXU?$DefaultMessageCreator@U?$msg_cm_@V?$allocator@X@std@@@cm@@@ros@@@Z
	??$assign_to@V?$bind_t@VSerializedMessage@ros@@P6A?AV12@AEBU?$msg_cm_@V?$allocator@X@std@@@cm@@@ZV?$list1@V?$reference_wrapper@U?$msg_cm_@V?$allocator@X@std@@@cm@@@mwboost@@@_bi@mwboost@@@_bi@mwboost@@@?$function0@VSerializedMessage@ros@@@mwboost@@AEAAXV?$bind_t@VSerializedMessage@ros@@P6A?AV12@AEBU?$msg_cm_@V?$allocator@X@std@@@cm@@@ZV?$list1@V?$reference_wrapper@U?$msg_cm_@V?$allocator@X@std@@@cm@@@mwboost@@@_bi@mwboost@@@_bi@1@@Z
	??$assign_to@V?$bind_t@XV?$mf1@XV?$ROSSubscriberImpl@U?$msg_cm_@V?$allocator@X@std@@@cm@@V?$shared_ptr@$$CBU?$msg_cm_@V?$allocator@X@std@@@cm@@@mwboost@@Vcm_msg_msg_cm_common@@@@AEBV?$shared_ptr@$$CBU?$msg_cm_@V?$allocator@X@std@@@cm@@@mwboost@@@_mfi@mwboost@@V?$list2@V?$value@PEAV?$ROSSubscriberImpl@U?$msg_cm_@V?$allocator@X@std@@@cm@@V?$shared_ptr@$$CBU?$msg_cm_@V?$allocator@X@std@@@cm@@@mwboost@@Vcm_msg_msg_cm_common@@@@@_bi@mwboost@@U?$arg@$00@3@@_bi@3@@_bi@mwboost@@@?$function1@XAEBV?$shared_ptr@$$CBU?$msg_cm_@V?$allocator@X@std@@@cm@@@mwboost@@@mwboost@@AEAAXV?$bind_t@XV?$mf1@XV?$ROSSubscriberImpl@U?$msg_cm_@V?$allocator@X@std@@@cm@@V?$shared_ptr@$$CBU?$msg_cm_@V?$allocator@X@std@@@cm@@@mwboost@@Vcm_msg_msg_cm_common@@@@AEBV?$shared_ptr@$$CBU?$msg_cm_@V?$allocator@X@std@@@cm@@@mwboost@@@_mfi@mwboost@@V?$list2@V?$value@PEAV?$ROSSubscriberImpl@U?$msg_cm_@V?$allocator@X@std@@@cm@@V?$shared_ptr@$$CBU?$msg_cm_@V?$allocator@X@std@@@cm@@@mwboost@@Vcm_msg_msg_cm_common@@@@@_bi@mwboost@@U?$arg@$00@3@@_bi@3@@_bi@1@@Z
	??$assign_to@V?$function@$$A6AXAEBV?$shared_ptr@$$CBU?$msg_cm_@V?$allocator@X@std@@@cm@@@mwboost@@@Z@mwboost@@@?$basic_vtable1@XV?$shared_ptr@$$CBU?$msg_cm_@V?$allocator@X@std@@@cm@@@mwboost@@@function@detail@mwboost@@AEBA_NV?$function@$$A6AXAEBV?$shared_ptr@$$CBU?$msg_cm_@V?$allocator@X@std@@@cm@@@mwboost@@@Z@3@AEATfunction_buffer@123@Ufunction_obj_tag@123@@Z
	??$assign_to@V?$function@$$A6AXAEBV?$shared_ptr@$$CBU?$msg_cm_@V?$allocator@X@std@@@cm@@@mwboost@@@Z@mwboost@@@?$function1@XV?$shared_ptr@$$CBU?$msg_cm_@V?$allocator@X@std@@@cm@@@mwboost@@@mwboost@@AEAAXV?$function@$$A6AXAEBV?$shared_ptr@$$CBU?$msg_cm_@V?$allocator@X@std@@@cm@@@mwboost@@@Z@1@@Z
	??$begin@N@?$IteratorFactory@$$YColumnMajorIterator@data@matlab@@@detail@data@matlab@@SA?AV?$OrderedIterator@NVColumnMajorOrder@detail@data@matlab@@@123@AEAV?$TypedArray@N@23@@Z
	??$begin@N@?$IteratorFactory@$$YRowMajorIterator@data@matlab@@@detail@data@matlab@@SA?AV?$OrderedIterator@NVRowMajorOrder@detail@data@matlab@@@123@AEAV?$TypedArray@N@23@@Z
	??$bind@VSerializedMessage@ros@@AEBU?$msg_cm_@V?$allocator@X@std@@@cm@@V?$reference_wrapper@U?$msg_cm_@V?$allocator@X@std@@@cm@@@mwboost@@@mwboost@@YA?AV?$bind_t@VSerializedMessage@ros@@P6A?AV12@AEBU?$msg_cm_@V?$allocator@X@std@@@cm@@@ZV?$list1@V?$reference_wrapper@U?$msg_cm_@V?$allocator@X@std@@@cm@@@mwboost@@@_bi@mwboost@@@_bi@0@P6A?AVSerializedMessage@ros@@AEBU?$msg_cm_@V?$allocator@X@std@@@cm@@@ZV?$reference_wrapper@U?$msg_cm_@V?$allocator@X@std@@@cm@@@0@@Z
	??$bind@XV?$ROSSubscriberImpl@U?$msg_cm_@V?$allocator@X@std@@@cm@@V?$shared_ptr@$$CBU?$msg_cm_@V?$allocator@X@std@@@cm@@@mwboost@@Vcm_msg_msg_cm_common@@@@AEBV?$shared_ptr@$$CBU?$msg_cm_@V?$allocator@X@std@@@cm@@@mwboost@@PEAV1@U?$arg@$00@3@@mwboost@@YA?AV?$bind_t@XV?$mf1@XV?$ROSSubscriberImpl@U?$msg_cm_@V?$allocator@X@std@@@cm@@V?$shared_ptr@$$CBU?$msg_cm_@V?$allocator@X@std@@@cm@@@mwboost@@Vcm_msg_msg_cm_common@@@@AEBV?$shared_ptr@$$CBU?$msg_cm_@V?$allocator@X@std@@@cm@@@mwboost@@@_mfi@mwboost@@V?$list2@V?$value@PEAV?$ROSSubscriberImpl@U?$msg_cm_@V?$allocator@X@std@@@cm@@V?$shared_ptr@$$CBU?$msg_cm_@V?$allocator@X@std@@@cm@@@mwboost@@Vcm_msg_msg_cm_common@@@@@_bi@mwboost@@U?$arg@$00@3@@_bi@3@@_bi@0@P8?$ROSSubscriberImpl@U?$msg_cm_@V?$allocator@X@std@@@cm@@V?$shared_ptr@$$CBU?$msg_cm_@V?$allocator@X@std@@@cm@@@mwboost@@Vcm_msg_msg_cm_common@@@@EAAXAEBV?$shared_ptr@$$CBU?$msg_cm_@V?$allocator@X@std@@@cm@@@0@@ZPEAV3@U?$arg@$00@0@@Z
	??$bind@XVClassLoader@ros1_class_loader@@PEAV?$MATLABROSMsgInterface@U?$Header_@V?$allocator@X@std@@@std_msgs@@@@PEAV12@U?$arg@$00@mwboost@@@mwboost@@YA?AV?$bind_t@XV?$mf1@XVClassLoader@ros1_class_loader@@PEAV?$MATLABROSMsgInterface@U?$Header_@V?$allocator@X@std@@@std_msgs@@@@@_mfi@mwboost@@V?$list2@V?$value@PEAVClassLoader@ros1_class_loader@@@_bi@mwboost@@U?$arg@$00@3@@_bi@3@@_bi@0@P8ClassLoader@ros1_class_loader@@EAAXPEAV?$MATLABROSMsgInterface@U?$Header_@V?$allocator@X@std@@@std_msgs@@@@@ZPEAV34@U?$arg@$00@0@@Z
	??$castTo@VCharArray@data@matlab@@$00@detail@data@matlab@@YA?AVCharArray@12@V?$shared_ptr@VReferenceImpl@detail@data@matlab@@@std@@@Z
	??$checked_delete@V?$clone_impl@Ubad_alloc_@exception_detail@mwboost@@@exception_detail@mwboost@@@mwboost@@YAXPEAV?$clone_impl@Ubad_alloc_@exception_detail@mwboost@@@exception_detail@0@@Z
	??$checked_delete@V?$clone_impl@Ubad_exception_@exception_detail@mwboost@@@exception_detail@mwboost@@@mwboost@@YAXPEAV?$clone_impl@Ubad_exception_@exception_detail@mwboost@@@exception_detail@0@@Z
	??$const_pointer_cast@U?$msg_cm_@V?$allocator@X@std@@@cm@@$$CBU12@@mwboost@@YA?AV?$shared_ptr@U?$msg_cm_@V?$allocator@X@std@@@cm@@@0@$$QEAV?$shared_ptr@$$CBU?$msg_cm_@V?$allocator@X@std@@@cm@@@0@@Z
	??$const_pointer_cast@U?$msg_cm_@V?$allocator@X@std@@@cm@@$$CBU12@@mwboost@@YA?AV?$shared_ptr@U?$msg_cm_@V?$allocator@X@std@@@cm@@@0@AEBV?$shared_ptr@$$CBU?$msg_cm_@V?$allocator@X@std@@@cm@@@0@@Z
	??$const_pointer_cast@X$$CBX@mwboost@@YA?AV?$shared_ptr@X@0@AEBV?$shared_ptr@$$CBX@0@@Z
	??$copy@V?$TypedIterator@$$CBN@data@matlab@@V?$_Vector_iterator@V?$_Vector_val@U?$_Simple_types@N@std@@@std@@@std@@@std@@YA?AV?$_Vector_iterator@V?$_Vector_val@U?$_Simple_types@N@std@@@std@@@0@V?$TypedIterator@$$CBN@data@matlab@@0V10@@Z
	??$copyMessageIfNecessary@$$CBU?$msg_cm_@V?$allocator@X@std@@@cm@@@?$MessageEvent@$$CBU?$msg_cm_@V?$allocator@X@std@@@cm@@@ros@@AEBA?AV?$shared_ptr@$$CBU?$msg_cm_@V?$allocator@X@std@@@cm@@@mwboost@@XZ
	??$copyMessageIfNecessary@$$CBX@?$MessageEvent@$$CBX@ros@@AEBA?AV?$shared_ptr@$$CBX@mwboost@@XZ
	??$createArray@N@ArrayFactory@data@matlab@@QEAA?AV?$TypedArray@N@12@V?$vector@_KV?$allocator@_K@std@@@std@@@Z
	??$createArray@V?$_Vector_const_iterator@V?$_Vector_val@U?$_Simple_types@N@std@@@std@@@std@@NN@ArrayFactory@data@matlab@@QEAA?AV?$TypedArray@N@12@V?$vector@_KV?$allocator@_K@std@@@std@@V?$_Vector_const_iterator@V?$_Vector_val@U?$_Simple_types@N@std@@@std@@@5@AEBV65@W4InputLayout@12@@Z
	??$createArray@VArray@data@matlab@@@ArrayFactory@data@matlab@@QEAA?AV?$TypedArray@VArray@data@matlab@@@12@V?$vector@_KV?$allocator@_K@std@@@std@@@Z
	??$createInstance@V?$MATLABROSMsgInterface@U?$Header_@V?$allocator@X@std@@@std_msgs@@@@@ClassLoader@ros1_class_loader@@QEAA?AV?$shared_ptr@V?$MATLABROSMsgInterface@U?$Header_@V?$allocator@X@std@@@std_msgs@@@@@mwboost@@AEBV?$basic_string@DU?$char_traits@D@std@@V?$allocator@D@2@@std@@@Z
	??$createInstance@V?$MATLABROSMsgInterface@U?$Header_@V?$allocator@X@std@@@std_msgs@@@@@MultiLibraryClassLoader@ros1_class_loader@@QEAA?AV?$shared_ptr@V?$MATLABROSMsgInterface@U?$Header_@V?$allocator@X@std@@@std_msgs@@@@@mwboost@@AEBV?$basic_string@DU?$char_traits@D@std@@V?$allocator@D@2@@std@@@Z
	??$createInstance@V?$MATLABROSMsgInterface@U?$Header_@V?$allocator@X@std@@@std_msgs@@@@@impl@ros1_class_loader@@YAPEAV?$MATLABROSMsgInterface@U?$Header_@V?$allocator@X@std@@@std_msgs@@@@AEBV?$basic_string@DU?$char_traits@D@std@@V?$allocator@D@2@@std@@PEAVClassLoader@1@@Z
	??$createObj@V?$ArrayElementTypedRef@VArray@data@matlab@@$0A@@data@matlab@@VReferenceImpl@detail@23@@Access@detail@data@matlab@@SA?AV?$ArrayElementTypedRef@VArray@data@matlab@@$0A@@23@V?$shared_ptr@VReferenceImpl@detail@data@matlab@@@std@@@Z
	??$createObj@VStruct@data@matlab@@VReferenceImpl@detail@23@@Access@detail@data@matlab@@SA?AVStruct@23@V?$shared_ptr@VReferenceImpl@detail@data@matlab@@@std@@@Z
	??$createRawInstance@V?$MATLABROSMsgInterface@U?$Header_@V?$allocator@X@std@@@std_msgs@@@@@ClassLoader@ros1_class_loader@@AEAAPEAV?$MATLABROSMsgInterface@U?$Header_@V?$allocator@X@std@@@std_msgs@@@@AEBV?$basic_string@DU?$char_traits@D@std@@V?$allocator@D@2@@std@@_N@Z
	??$createTempRef@N$00@?$TypedIterator@$$CBN@data@matlab@@AEAAPEANV?$shared_ptr@VIteratorImpl@detail@data@matlab@@@std@@@Z
	??$createTempRef@N$0A@@?$TypedIterator@N@data@matlab@@AEAAPEANV?$shared_ptr@VIteratorImpl@detail@data@matlab@@@std@@@Z
	??$doWrite@U?$msg_cm_@V?$allocator@X@std@@@cm@@@Bag@rosbag@@AEAAXAEBV?$basic_string@DU?$char_traits@D@std@@V?$allocator@D@2@@std@@AEBVTime@ros@@AEBU?$msg_cm_@V?$allocator@X@std@@@cm@@AEBV?$shared_ptr@V?$map@V?$basic_string@DU?$char_traits@D@std@@V?$allocator@D@2@@std@@V12@U?$less@V?$basic_string@DU?$char_traits@D@std@@V?$allocator@D@2@@std@@@2@V?$allocator@U?$pair@$$CBV?$basic_string@DU?$char_traits@D@std@@V?$allocator@D@2@@std@@V12@@std@@@2@@std@@@mwboost@@@Z
	??$end@N@?$IteratorFactory@$$YColumnMajorIterator@data@matlab@@@detail@data@matlab@@SA?AV?$OrderedIterator@NVColumnMajorOrder@detail@data@matlab@@@123@AEAV?$TypedArray@N@23@@Z
	??$end@N@?$IteratorFactory@$$YRowMajorIterator@data@matlab@@@detail@data@matlab@@SA?AV?$OrderedIterator@NVRowMajorOrder@detail@data@matlab@@@123@AEAV?$TypedArray@N@23@@Z
	??$fillInArrayImpl@$$YColumnMajorIterator@data@matlab@@V?$IteratorFactory@$$YColumnMajorIterator@data@matlab@@@detail@23@NV?$_Vector_const_iterator@V?$_Vector_val@U?$_Simple_types@N@std@@@std@@@std@@N@ArrayFactory@data@matlab@@AEAAXAEAV?$TypedArray@N@12@V?$_Vector_const_iterator@V?$_Vector_val@U?$_Simple_types@N@std@@@std@@@std@@AEBV45@@Z
	??$fillInArrayImpl@$$YRowMajorIterator@data@matlab@@V?$IteratorFactory@$$YRowMajorIterator@data@matlab@@@detail@23@NV?$_Vector_const_iterator@V?$_Vector_val@U?$_Simple_types@N@std@@@std@@@std@@N@ArrayFactory@data@matlab@@AEAAXAEAV?$TypedArray@N@12@V?$_Vector_const_iterator@V?$_Vector_val@U?$_Simple_types@N@std@@@std@@@std@@AEBV45@@Z
	??$find@V?$_Vector_iterator@V?$_Vector_val@U?$_Simple_types@V?$basic_string@DU?$char_traits@D@std@@V?$allocator@D@2@@std@@@std@@@std@@@std@@V?$basic_string@DU?$char_traits@D@std@@V?$allocator@D@2@@2@@std@@YA?AV?$_Vector_iterator@V?$_Vector_val@U?$_Simple_types@V?$basic_string@DU?$char_traits@D@std@@V?$allocator@D@2@@std@@@std@@@std@@@0@V10@V10@AEBV?$basic_string@DU?$char_traits@D@std@@V?$allocator@D@2@@0@@Z
	??$find_if@V?$_String_const_iterator@V?$_String_val@U?$_Simple_types@D@std@@@std@@@std@@V<lambda_9af1022c29514f862ee55749a69d7ee5>@@@std@@YA?AV?$_String_const_iterator@V?$_String_val@U?$_Simple_types@D@std@@@std@@@0@V10@V10@V<lambda_9af1022c29514f862ee55749a69d7ee5>@@@Z
	??$find_if@V?$reverse_iterator@V?$_Vector_const_iterator@V?$_Vector_val@U?$_Simple_types@U?$pair@W4FunctionType@detail@data@matlab@@V?$basic_string@DU?$char_traits@D@std@@V?$allocator@D@2@@std@@@std@@@std@@@std@@@std@@@std@@V<lambda_0f370ae65f102ac7a82bad354932aaa4>@@@std@@YA?AV?$reverse_iterator@V?$_Vector_const_iterator@V?$_Vector_val@U?$_Simple_types@U?$pair@W4FunctionType@detail@data@matlab@@V?$basic_string@DU?$char_traits@D@std@@V?$allocator@D@2@@std@@@std@@@std@@@std@@@std@@@0@V10@V10@V<lambda_0f370ae65f102ac7a82bad354932aaa4>@@@Z
	??$find_if@V?$reverse_iterator@V?$_Vector_const_iterator@V?$_Vector_val@U?$_Simple_types@U?$pair@W4FunctionType@detail@data@matlab@@V?$basic_string@DU?$char_traits@D@std@@V?$allocator@D@2@@std@@@std@@@std@@@std@@@std@@@std@@V<lambda_13bdfcd965164f51f36a5527aab1fee0>@@@std@@YA?AV?$reverse_iterator@V?$_Vector_const_iterator@V?$_Vector_val@U?$_Simple_types@U?$pair@W4FunctionType@detail@data@matlab@@V?$basic_string@DU?$char_traits@D@std@@V?$allocator@D@2@@std@@@std@@@std@@@std@@@std@@@0@V10@V10@V<lambda_13bdfcd965164f51f36a5527aab1fee0>@@@Z
	??$find_if@V?$reverse_iterator@V?$_Vector_const_iterator@V?$_Vector_val@U?$_Simple_types@U?$pair@W4FunctionType@detail@data@matlab@@V?$basic_string@DU?$char_traits@D@std@@V?$allocator@D@2@@std@@@std@@@std@@@std@@@std@@@std@@V<lambda_176c21c6905cf270b75ba66e243bfeb4>@@@std@@YA?AV?$reverse_iterator@V?$_Vector_const_iterator@V?$_Vector_val@U?$_Simple_types@U?$pair@W4FunctionType@detail@data@matlab@@V?$basic_string@DU?$char_traits@D@std@@V?$allocator@D@2@@std@@@std@@@std@@@std@@@std@@@0@V10@V10@V<lambda_176c21c6905cf270b75ba66e243bfeb4>@@@Z
	??$find_if@V?$reverse_iterator@V?$_Vector_const_iterator@V?$_Vector_val@U?$_Simple_types@U?$pair@W4FunctionType@detail@data@matlab@@V?$basic_string@DU?$char_traits@D@std@@V?$allocator@D@2@@std@@@std@@@std@@@std@@@std@@@std@@V<lambda_201592730bdf769fe2bfffaef13f66e8>@@@std@@YA?AV?$reverse_iterator@V?$_Vector_const_iterator@V?$_Vector_val@U?$_Simple_types@U?$pair@W4FunctionType@detail@data@matlab@@V?$basic_string@DU?$char_traits@D@std@@V?$allocator@D@2@@std@@@std@@@std@@@std@@@std@@@0@V10@V10@V<lambda_201592730bdf769fe2bfffaef13f66e8>@@@Z
	??$find_if@V?$reverse_iterator@V?$_Vector_const_iterator@V?$_Vector_val@U?$_Simple_types@U?$pair@W4FunctionType@detail@data@matlab@@V?$basic_string@DU?$char_traits@D@std@@V?$allocator@D@2@@std@@@std@@@std@@@std@@@std@@@std@@V<lambda_269f37e20f44d03140f9167e6568acef>@@@std@@YA?AV?$reverse_iterator@V?$_Vector_const_iterator@V?$_Vector_val@U?$_Simple_types@U?$pair@W4FunctionType@detail@data@matlab@@V?$basic_string@DU?$char_traits@D@std@@V?$allocator@D@2@@std@@@std@@@std@@@std@@@std@@@0@V10@V10@V<lambda_269f37e20f44d03140f9167e6568acef>@@@Z
	??$find_if@V?$reverse_iterator@V?$_Vector_const_iterator@V?$_Vector_val@U?$_Simple_types@U?$pair@W4FunctionType@detail@data@matlab@@V?$basic_string@DU?$char_traits@D@std@@V?$allocator@D@2@@std@@@std@@@std@@@std@@@std@@@std@@V<lambda_4f43e8ce25aa75a6d852dcaacaa3ec2b>@@@std@@YA?AV?$reverse_iterator@V?$_Vector_const_iterator@V?$_Vector_val@U?$_Simple_types@U?$pair@W4FunctionType@detail@data@matlab@@V?$basic_string@DU?$char_traits@D@std@@V?$allocator@D@2@@std@@@std@@@std@@@std@@@std@@@0@V10@V10@V<lambda_4f43e8ce25aa75a6d852dcaacaa3ec2b>@@@Z
	??$find_if@V?$reverse_iterator@V?$_Vector_const_iterator@V?$_Vector_val@U?$_Simple_types@U?$pair@W4FunctionType@detail@data@matlab@@V?$basic_string@DU?$char_traits@D@std@@V?$allocator@D@2@@std@@@std@@@std@@@std@@@std@@@std@@V<lambda_55961c2b940488b1a47869efee919f7a>@@@std@@YA?AV?$reverse_iterator@V?$_Vector_const_iterator@V?$_Vector_val@U?$_Simple_types@U?$pair@W4FunctionType@detail@data@matlab@@V?$basic_string@DU?$char_traits@D@std@@V?$allocator@D@2@@std@@@std@@@std@@@std@@@std@@@0@V10@V10@V<lambda_55961c2b940488b1a47869efee919f7a>@@@Z
	??$find_if@V?$reverse_iterator@V?$_Vector_const_iterator@V?$_Vector_val@U?$_Simple_types@U?$pair@W4FunctionType@detail@data@matlab@@V?$basic_string@DU?$char_traits@D@std@@V?$allocator@D@2@@std@@@std@@@std@@@std@@@std@@@std@@V<lambda_5a3da967fa0b3d738ad6bdefe7e809b1>@@@std@@YA?AV?$reverse_iterator@V?$_Vector_const_iterator@V?$_Vector_val@U?$_Simple_types@U?$pair@W4FunctionType@detail@data@matlab@@V?$basic_string@DU?$char_traits@D@std@@V?$allocator@D@2@@std@@@std@@@std@@@std@@@std@@@0@V10@V10@V<lambda_5a3da967fa0b3d738ad6bdefe7e809b1>@@@Z
	??$find_if@V?$reverse_iterator@V?$_Vector_const_iterator@V?$_Vector_val@U?$_Simple_types@U?$pair@W4FunctionType@detail@data@matlab@@V?$basic_string@DU?$char_traits@D@std@@V?$allocator@D@2@@std@@@std@@@std@@@std@@@std@@@std@@V<lambda_5f8c257ece58d6518f7f7b3f44102e7b>@@@std@@YA?AV?$reverse_iterator@V?$_Vector_const_iterator@V?$_Vector_val@U?$_Simple_types@U?$pair@W4FunctionType@detail@data@matlab@@V?$basic_string@DU?$char_traits@D@std@@V?$allocator@D@2@@std@@@std@@@std@@@std@@@std@@@0@V10@V10@V<lambda_5f8c257ece58d6518f7f7b3f44102e7b>@@@Z
	??$find_if@V?$reverse_iterator@V?$_Vector_const_iterator@V?$_Vector_val@U?$_Simple_types@U?$pair@W4FunctionType@detail@data@matlab@@V?$basic_string@DU?$char_traits@D@std@@V?$allocator@D@2@@std@@@std@@@std@@@std@@@std@@@std@@V<lambda_695d040f10a98b75b53fbe763a0e3fcf>@@@std@@YA?AV?$reverse_iterator@V?$_Vector_const_iterator@V?$_Vector_val@U?$_Simple_types@U?$pair@W4FunctionType@detail@data@matlab@@V?$basic_string@DU?$char_traits@D@std@@V?$allocator@D@2@@std@@@std@@@std@@@std@@@std@@@0@V10@V10@V<lambda_695d040f10a98b75b53fbe763a0e3fcf>@@@Z
	??$find_if@V?$reverse_iterator@V?$_Vector_const_iterator@V?$_Vector_val@U?$_Simple_types@U?$pair@W4FunctionType@detail@data@matlab@@V?$basic_string@DU?$char_traits@D@std@@V?$allocator@D@2@@std@@@std@@@std@@@std@@@std@@@std@@V<lambda_73d50c99e7c5760cdaac611e2ed40b03>@@@std@@YA?AV?$reverse_iterator@V?$_Vector_const_iterator@V?$_Vector_val@U?$_Simple_types@U?$pair@W4FunctionType@detail@data@matlab@@V?$basic_string@DU?$char_traits@D@std@@V?$allocator@D@2@@std@@@std@@@std@@@std@@@std@@@0@V10@V10@V<lambda_73d50c99e7c5760cdaac611e2ed40b03>@@@Z
	??$find_if@V?$reverse_iterator@V?$_Vector_const_iterator@V?$_Vector_val@U?$_Simple_types@U?$pair@W4FunctionType@detail@data@matlab@@V?$basic_string@DU?$char_traits@D@std@@V?$allocator@D@2@@std@@@std@@@std@@@std@@@std@@@std@@V<lambda_77135c9c3f3ea0d5eb8309802ae069e6>@@@std@@YA?AV?$reverse_iterator@V?$_Vector_const_iterator@V?$_Vector_val@U?$_Simple_types@U?$pair@W4FunctionType@detail@data@matlab@@V?$basic_string@DU?$char_traits@D@std@@V?$allocator@D@2@@std@@@std@@@std@@@std@@@std@@@0@V10@V10@V<lambda_77135c9c3f3ea0d5eb8309802ae069e6>@@@Z
	??$find_if@V?$reverse_iterator@V?$_Vector_const_iterator@V?$_Vector_val@U?$_Simple_types@U?$pair@W4FunctionType@detail@data@matlab@@V?$basic_string@DU?$char_traits@D@std@@V?$allocator@D@2@@std@@@std@@@std@@@std@@@std@@@std@@V<lambda_788271acfceeef96eb86ecb0d6f6eb0e>@@@std@@YA?AV?$reverse_iterator@V?$_Vector_const_iterator@V?$_Vector_val@U?$_Simple_types@U?$pair@W4FunctionType@detail@data@matlab@@V?$basic_string@DU?$char_traits@D@std@@V?$allocator@D@2@@std@@@std@@@std@@@std@@@std@@@0@V10@V10@V<lambda_788271acfceeef96eb86ecb0d6f6eb0e>@@@Z
	??$find_if@V?$reverse_iterator@V?$_Vector_const_iterator@V?$_Vector_val@U?$_Simple_types@U?$pair@W4FunctionType@detail@data@matlab@@V?$basic_string@DU?$char_traits@D@std@@V?$allocator@D@2@@std@@@std@@@std@@@std@@@std@@@std@@V<lambda_7e7f3d1f1aa53fa1ba6516b644b93b01>@@@std@@YA?AV?$reverse_iterator@V?$_Vector_const_iterator@V?$_Vector_val@U?$_Simple_types@U?$pair@W4FunctionType@detail@data@matlab@@V?$basic_string@DU?$char_traits@D@std@@V?$allocator@D@2@@std@@@std@@@std@@@std@@@std@@@0@V10@V10@V<lambda_7e7f3d1f1aa53fa1ba6516b644b93b01>@@@Z
	??$find_if@V?$reverse_iterator@V?$_Vector_const_iterator@V?$_Vector_val@U?$_Simple_types@U?$pair@W4FunctionType@detail@data@matlab@@V?$basic_string@DU?$char_traits@D@std@@V?$allocator@D@2@@std@@@std@@@std@@@std@@@std@@@std@@V<lambda_8be2d382656ec6a4e3c6eaae250bfee4>@@@std@@YA?AV?$reverse_iterator@V?$_Vector_const_iterator@V?$_Vector_val@U?$_Simple_types@U?$pair@W4FunctionType@detail@data@matlab@@V?$basic_string@DU?$char_traits@D@std@@V?$allocator@D@2@@std@@@std@@@std@@@std@@@std@@@0@V10@V10@V<lambda_8be2d382656ec6a4e3c6eaae250bfee4>@@@Z
	??$find_if@V?$reverse_iterator@V?$_Vector_const_iterator@V?$_Vector_val@U?$_Simple_types@U?$pair@W4FunctionType@detail@data@matlab@@V?$basic_string@DU?$char_traits@D@std@@V?$allocator@D@2@@std@@@std@@@std@@@std@@@std@@@std@@V<lambda_a25eb0597b8814dd213240eb9e7defd3>@@@std@@YA?AV?$reverse_iterator@V?$_Vector_const_iterator@V?$_Vector_val@U?$_Simple_types@U?$pair@W4FunctionType@detail@data@matlab@@V?$basic_string@DU?$char_traits@D@std@@V?$allocator@D@2@@std@@@std@@@std@@@std@@@std@@@0@V10@V10@V<lambda_a25eb0597b8814dd213240eb9e7defd3>@@@Z
	??$find_if@V?$reverse_iterator@V?$_Vector_const_iterator@V?$_Vector_val@U?$_Simple_types@U?$pair@W4FunctionType@detail@data@matlab@@V?$basic_string@DU?$char_traits@D@std@@V?$allocator@D@2@@std@@@std@@@std@@@std@@@std@@@std@@V<lambda_a47ff836cf5d7a0ca3a0353711eb4bf1>@@@std@@YA?AV?$reverse_iterator@V?$_Vector_const_iterator@V?$_Vector_val@U?$_Simple_types@U?$pair@W4FunctionType@detail@data@matlab@@V?$basic_string@DU?$char_traits@D@std@@V?$allocator@D@2@@std@@@std@@@std@@@std@@@std@@@0@V10@V10@V<lambda_a47ff836cf5d7a0ca3a0353711eb4bf1>@@@Z
	??$find_if@V?$reverse_iterator@V?$_Vector_const_iterator@V?$_Vector_val@U?$_Simple_types@U?$pair@W4FunctionType@detail@data@matlab@@V?$basic_string@DU?$char_traits@D@std@@V?$allocator@D@2@@std@@@std@@@std@@@std@@@std@@@std@@V<lambda_b0c85504611ba05bc24f396e1d28962d>@@@std@@YA?AV?$reverse_iterator@V?$_Vector_const_iterator@V?$_Vector_val@U?$_Simple_types@U?$pair@W4FunctionType@detail@data@matlab@@V?$basic_string@DU?$char_traits@D@std@@V?$allocator@D@2@@std@@@std@@@std@@@std@@@std@@@0@V10@V10@V<lambda_b0c85504611ba05bc24f396e1d28962d>@@@Z
	??$find_if@V?$reverse_iterator@V?$_Vector_const_iterator@V?$_Vector_val@U?$_Simple_types@U?$pair@W4FunctionType@detail@data@matlab@@V?$basic_string@DU?$char_traits@D@std@@V?$allocator@D@2@@std@@@std@@@std@@@std@@@std@@@std@@V<lambda_b45305fc15bd606cdc0402abe86e0342>@@@std@@YA?AV?$reverse_iterator@V?$_Vector_const_iterator@V?$_Vector_val@U?$_Simple_types@U?$pair@W4FunctionType@detail@data@matlab@@V?$basic_string@DU?$char_traits@D@std@@V?$allocator@D@2@@std@@@std@@@std@@@std@@@std@@@0@V10@V10@V<lambda_b45305fc15bd606cdc0402abe86e0342>@@@Z
	??$find_if@V?$reverse_iterator@V?$_Vector_const_iterator@V?$_Vector_val@U?$_Simple_types@U?$pair@W4FunctionType@detail@data@matlab@@V?$basic_string@DU?$char_traits@D@std@@V?$allocator@D@2@@std@@@std@@@std@@@std@@@std@@@std@@V<lambda_c81a067a95cf8738113188358ec7a8a2>@@@std@@YA?AV?$reverse_iterator@V?$_Vector_const_iterator@V?$_Vector_val@U?$_Simple_types@U?$pair@W4FunctionType@detail@data@matlab@@V?$basic_string@DU?$char_traits@D@std@@V?$allocator@D@2@@std@@@std@@@std@@@std@@@std@@@0@V10@V10@V<lambda_c81a067a95cf8738113188358ec7a8a2>@@@Z
	??$find_if@V?$reverse_iterator@V?$_Vector_const_iterator@V?$_Vector_val@U?$_Simple_types@U?$pair@W4FunctionType@detail@data@matlab@@V?$basic_string@DU?$char_traits@D@std@@V?$allocator@D@2@@std@@@std@@@std@@@std@@@std@@@std@@V<lambda_c8617b8e1fe18dddccf3a77c16335331>@@@std@@YA?AV?$reverse_iterator@V?$_Vector_const_iterator@V?$_Vector_val@U?$_Simple_types@U?$pair@W4FunctionType@detail@data@matlab@@V?$basic_string@DU?$char_traits@D@std@@V?$allocator@D@2@@std@@@std@@@std@@@std@@@std@@@0@V10@V10@V<lambda_c8617b8e1fe18dddccf3a77c16335331>@@@Z
	??$find_if@V?$reverse_iterator@V?$_Vector_const_iterator@V?$_Vector_val@U?$_Simple_types@U?$pair@W4FunctionType@detail@data@matlab@@V?$basic_string@DU?$char_traits@D@std@@V?$allocator@D@2@@std@@@std@@@std@@@std@@@std@@@std@@V<lambda_d2bb6da424f28e796fa3e447cfb6c15a>@@@std@@YA?AV?$reverse_iterator@V?$_Vector_const_iterator@V?$_Vector_val@U?$_Simple_types@U?$pair@W4FunctionType@detail@data@matlab@@V?$basic_string@DU?$char_traits@D@std@@V?$allocator@D@2@@std@@@std@@@std@@@std@@@std@@@0@V10@V10@V<lambda_d2bb6da424f28e796fa3e447cfb6c15a>@@@Z
	??$find_if@V?$reverse_iterator@V?$_Vector_const_iterator@V?$_Vector_val@U?$_Simple_types@U?$pair@W4FunctionType@detail@data@matlab@@V?$basic_string@DU?$char_traits@D@std@@V?$allocator@D@2@@std@@@std@@@std@@@std@@@std@@@std@@V<lambda_ec5c17b8d62791c6584de35bf1319d21>@@@std@@YA?AV?$reverse_iterator@V?$_Vector_const_iterator@V?$_Vector_val@U?$_Simple_types@U?$pair@W4FunctionType@detail@data@matlab@@V?$basic_string@DU?$char_traits@D@std@@V?$allocator@D@2@@std@@@std@@@std@@@std@@@std@@@0@V10@V10@V<lambda_ec5c17b8d62791c6584de35bf1319d21>@@@Z
	??$find_if@V?$reverse_iterator@V?$_Vector_const_iterator@V?$_Vector_val@U?$_Simple_types@U?$pair@W4FunctionType@detail@data@matlab@@V?$basic_string@DU?$char_traits@D@std@@V?$allocator@D@2@@std@@@std@@@std@@@std@@@std@@@std@@V<lambda_eea4cbbc629bac234384ed27dbe99b43>@@@std@@YA?AV?$reverse_iterator@V?$_Vector_const_iterator@V?$_Vector_val@U?$_Simple_types@U?$pair@W4FunctionType@detail@data@matlab@@V?$basic_string@DU?$char_traits@D@std@@V?$allocator@D@2@@std@@@std@@@std@@@std@@@std@@@0@V10@V10@V<lambda_eea4cbbc629bac234384ed27dbe99b43>@@@Z
	??$find_if@V?$reverse_iterator@V?$_Vector_const_iterator@V?$_Vector_val@U?$_Simple_types@U?$pair@W4FunctionType@detail@data@matlab@@V?$basic_string@DU?$char_traits@D@std@@V?$allocator@D@2@@std@@@std@@@std@@@std@@@std@@@std@@V<lambda_f1677acafd17cb4cd243f3d5a9f98c96>@@@std@@YA?AV?$reverse_iterator@V?$_Vector_const_iterator@V?$_Vector_val@U?$_Simple_types@U?$pair@W4FunctionType@detail@data@matlab@@V?$basic_string@DU?$char_traits@D@std@@V?$allocator@D@2@@std@@@std@@@std@@@std@@@std@@@0@V10@V10@V<lambda_f1677acafd17cb4cd243f3d5a9f98c96>@@@Z
	??$find_if@V?$reverse_iterator@V?$_Vector_const_iterator@V?$_Vector_val@U?$_Simple_types@U?$pair@W4FunctionType@detail@data@matlab@@V?$basic_string@DU?$char_traits@D@std@@V?$allocator@D@2@@std@@@std@@@std@@@std@@@std@@@std@@V<lambda_f5b4ff6f1bc0c2d3120d50ec6b8496ac>@@@std@@YA?AV?$reverse_iterator@V?$_Vector_const_iterator@V?$_Vector_val@U?$_Simple_types@U?$pair@W4FunctionType@detail@data@matlab@@V?$basic_string@DU?$char_traits@D@std@@V?$allocator@D@2@@std@@@std@@@std@@@std@@@std@@@0@V10@V10@V<lambda_f5b4ff6f1bc0c2d3120d50ec6b8496ac>@@@Z
	??$getAvailableClasses@V?$MATLABROSMsgInterface@U?$Header_@V?$allocator@X@std@@@std_msgs@@@@@impl@ros1_class_loader@@YA?AV?$vector@V?$basic_string@DU?$char_traits@D@std@@V?$allocator@D@2@@std@@V?$allocator@V?$basic_string@DU?$char_traits@D@std@@V?$allocator@D@2@@std@@@2@@std@@PEAVClassLoader@1@@Z
	??$getClassLoaderForClass@V?$MATLABROSMsgInterface@U?$Header_@V?$allocator@X@std@@@std_msgs@@@@@MultiLibraryClassLoader@ros1_class_loader@@AEAAPEAVClassLoader@1@AEBV?$basic_string@DU?$char_traits@D@std@@V?$allocator@D@2@@std@@@Z
	??$getCommonObject@U?$Header_@V?$allocator@X@std@@@std_msgs@@@?$MATLABROSMsgInterface@U?$msg_cm_@V?$allocator@X@std@@@cm@@@@QEAAPEAV?$MATLABROSMsgInterface@U?$Header_@V?$allocator@X@std@@@std_msgs@@@@AEBV?$basic_string@DU?$char_traits@D@std@@V?$allocator@D@2@@std@@PEAVMultiLibraryClassLoader@ros1_class_loader@@@Z
	??$getElement@VStruct@data@matlab@@@detail@data@matlab@@YA?AVStruct@12@V?$shared_ptr@VReferenceImpl@detail@data@matlab@@@std@@@Z
	??$getFactoryMapForBaseClass@V?$MATLABROSMsgInterface@U?$Header_@V?$allocator@X@std@@@std_msgs@@@@@impl@ros1_class_loader@@YAAEAV?$map@V?$basic_string@DU?$char_traits@D@std@@V?$allocator@D@2@@std@@PEAVAbstractMetaObjectBase@impl@ros1_class_loader@@U?$less@V?$basic_string@DU?$char_traits@D@std@@V?$allocator@D@2@@std@@@2@V?$allocator@U?$pair@$$CBV?$basic_string@DU?$char_traits@D@std@@V?$allocator@D@2@@std@@PEAVAbstractMetaObjectBase@impl@ros1_class_loader@@@std@@@2@@std@@XZ
	??$getFactoryMapForBaseClass@V?$MATLABROSMsgInterface@U?$msg_cm_@V?$allocator@X@std@@@cm@@@@@impl@ros1_class_loader@@YAAEAV?$map@V?$basic_string@DU?$char_traits@D@std@@V?$allocator@D@2@@std@@PEAVAbstractMetaObjectBase@impl@ros1_class_loader@@U?$less@V?$basic_string@DU?$char_traits@D@std@@V?$allocator@D@2@@std@@@2@V?$allocator@U?$pair@$$CBV?$basic_string@DU?$char_traits@D@std@@V?$allocator@D@2@@std@@PEAVAbstractMetaObjectBase@impl@ros1_class_loader@@@std@@@2@@std@@XZ
	??$getFactoryMapForBaseClass@VROSMsgElementInterfaceFactory@@@impl@ros1_class_loader@@YAAEAV?$map@V?$basic_string@DU?$char_traits@D@std@@V?$allocator@D@2@@std@@PEAVAbstractMetaObjectBase@impl@ros1_class_loader@@U?$less@V?$basic_string@DU?$char_traits@D@std@@V?$allocator@D@2@@std@@@2@V?$allocator@U?$pair@$$CBV?$basic_string@DU?$char_traits@D@std@@V?$allocator@D@2@@std@@PEAVAbstractMetaObjectBase@impl@ros1_class_loader@@@std@@@2@@std@@XZ
	??$get_local_deleter@U?$checked_array_deleter@E@mwboost@@@detail@mwboost@@YAPEAU?$checked_array_deleter@E@1@PEAU21@@Z
	??$get_local_deleter@V?$bind_t@XV?$mf1@XVClassLoader@ros1_class_loader@@PEAV?$MATLABROSMsgInterface@U?$Header_@V?$allocator@X@std@@@std_msgs@@@@@_mfi@mwboost@@V?$list2@V?$value@PEAVClassLoader@ros1_class_loader@@@_bi@mwboost@@U?$arg@$00@3@@_bi@3@@_bi@mwboost@@@detail@mwboost@@YAPEAV?$bind_t@XV?$mf1@XVClassLoader@ros1_class_loader@@PEAV?$MATLABROSMsgInterface@U?$Header_@V?$allocator@X@std@@@std_msgs@@@@@_mfi@mwboost@@V?$list2@V?$value@PEAVClassLoader@ros1_class_loader@@@_bi@mwboost@@U?$arg@$00@3@@_bi@3@@_bi@1@PEAV231@@Z
	??$get_local_deleter@V?$sp_ms_deleter@U?$msg_cm_@V?$allocator@X@std@@@cm@@@detail@mwboost@@@detail@mwboost@@YAPEAV?$sp_ms_deleter@U?$msg_cm_@V?$allocator@X@std@@@cm@@@01@PEAV201@@Z
	??$get_local_deleter@V?$sp_ms_deleter@V?$SubscriptionCallbackHelperT@AEBV?$shared_ptr@$$CBU?$msg_cm_@V?$allocator@X@std@@@cm@@@mwboost@@X@ros@@@detail@mwboost@@@detail@mwboost@@YAPEAV?$sp_ms_deleter@V?$SubscriptionCallbackHelperT@AEBV?$shared_ptr@$$CBU?$msg_cm_@V?$allocator@X@std@@@cm@@@mwboost@@X@ros@@@01@PEAV201@@Z
	??$get_local_deleter@V?$sp_ms_deleter@V?$map@V?$basic_string@DU?$char_traits@D@std@@V?$allocator@D@2@@std@@V12@U?$less@V?$basic_string@DU?$char_traits@D@std@@V?$allocator@D@2@@std@@@2@V?$allocator@U?$pair@$$CBV?$basic_string@DU?$char_traits@D@std@@V?$allocator@D@2@@std@@V12@@std@@@2@@std@@@detail@mwboost@@@detail@mwboost@@YAPEAV?$sp_ms_deleter@V?$map@V?$basic_string@DU?$char_traits@D@std@@V?$allocator@D@2@@std@@V12@U?$less@V?$basic_string@DU?$char_traits@D@std@@V?$allocator@D@2@@std@@@2@V?$allocator@U?$pair@$$CBV?$basic_string@DU?$char_traits@D@std@@V?$allocator@D@2@@std@@V12@@std@@@2@@std@@@01@PEAV201@@Z
	??$get_static_exception_object@Ubad_alloc_@exception_detail@mwboost@@@exception_detail@mwboost@@YA?AVexception_ptr@1@XZ
	??$get_static_exception_object@Ubad_exception_@exception_detail@mwboost@@@exception_detail@mwboost@@YA?AVexception_ptr@1@XZ
	??$init@U?$msg_cm_@V?$allocator@X@std@@@cm@@@AdvertiseOptions@ros@@QEAAXAEBV?$basic_string@DU?$char_traits@D@std@@V?$allocator@D@2@@std@@IAEBV?$function@$$A6AXAEBVSingleSubscriberPublisher@ros@@@Z@mwboost@@1@Z
	??$init@U?$msg_cm_@V?$allocator@X@std@@@cm@@@SubscribeOptions@ros@@QEAAXAEBV?$basic_string@DU?$char_traits@D@std@@V?$allocator@D@2@@std@@IAEBV?$function@$$A6AXAEBV?$shared_ptr@$$CBU?$msg_cm_@V?$allocator@X@std@@@cm@@@mwboost@@@Z@mwboost@@AEBV?$function@$$A6A?AV?$shared_ptr@U?$msg_cm_@V?$allocator@X@std@@@cm@@@mwboost@@XZ@5@@Z
	??$insert@V?$_Vector_iterator@V?$_Vector_val@U?$_Simple_types@V?$basic_string@DU?$char_traits@D@std@@V?$allocator@D@2@@std@@@std@@@std@@@std@@$0A@@?$vector@V?$basic_string@DU?$char_traits@D@std@@V?$allocator@D@2@@std@@V?$allocator@V?$basic_string@DU?$char_traits@D@std@@V?$allocator@D@2@@std@@@2@@std@@QEAA?AV?$_Vector_iterator@V?$_Vector_val@U?$_Simple_types@V?$basic_string@DU?$char_traits@D@std@@V?$allocator@D@2@@std@@@std@@@std@@@1@V?$_Vector_const_iterator@V?$_Vector_val@U?$_Simple_types@V?$basic_string@DU?$char_traits@D@std@@V?$allocator@D@2@@std@@@std@@@std@@@1@V21@1@Z
	??$isClassAvailable@V?$MATLABROSMsgInterface@U?$Header_@V?$allocator@X@std@@@std_msgs@@@@@ClassLoader@ros1_class_loader@@QEAA_NAEBV?$basic_string@DU?$char_traits@D@std@@V?$allocator@D@2@@std@@@Z
	??$lexicographical_compare@V?$_Tree_unchecked_const_iterator@V?$_Tree_val@U?$_Tree_simple_types@U?$pair@$$CBV?$basic_string@DU?$char_traits@D@std@@V?$allocator@D@2@@std@@V12@@std@@@std@@@std@@U_Iterator_base0@2@@std@@V12@U?$less@X@2@@std@@YA_NV?$_Tree_unchecked_const_iterator@V?$_Tree_val@U?$_Tree_simple_types@U?$pair@$$CBV?$basic_string@DU?$char_traits@D@std@@V?$allocator@D@2@@std@@V12@@std@@@std@@@std@@U_Iterator_base0@2@@0@000U?$less@X@0@@Z
	??$make_shared@U?$msg_cm_@V?$allocator@X@std@@@cm@@$$V@mwboost@@YA?AV?$shared_ptr@U?$msg_cm_@V?$allocator@X@std@@@cm@@@0@XZ
	??$make_shared@V?$ROSBagWriterImpl@U?$msg_cm_@V?$allocator@X@std@@@cm@@Vcm_msg_msg_cm_common@@@@$$V@std@@YA?AV?$shared_ptr@V?$ROSBagWriterImpl@U?$msg_cm_@V?$allocator@X@std@@@cm@@Vcm_msg_msg_cm_common@@@@@0@XZ
	??$make_shared@V?$ROSPublisherImpl@U?$msg_cm_@V?$allocator@X@std@@@cm@@Vcm_msg_msg_cm_common@@@@$$V@std@@YA?AV?$shared_ptr@V?$ROSPublisherImpl@U?$msg_cm_@V?$allocator@X@std@@@cm@@Vcm_msg_msg_cm_common@@@@@0@XZ
	??$make_shared@V?$ROSSubscriberImpl@U?$msg_cm_@V?$allocator@X@std@@@cm@@V?$shared_ptr@$$CBU?$msg_cm_@V?$allocator@X@std@@@cm@@@mwboost@@Vcm_msg_msg_cm_common@@@@$$V@std@@YA?AV?$shared_ptr@V?$ROSSubscriberImpl@U?$msg_cm_@V?$allocator@X@std@@@cm@@V?$shared_ptr@$$CBU?$msg_cm_@V?$allocator@X@std@@@cm@@@mwboost@@Vcm_msg_msg_cm_common@@@@@0@XZ
	??$make_shared@V?$SubscriptionCallbackHelperT@AEBV?$shared_ptr@$$CBU?$msg_cm_@V?$allocator@X@std@@@cm@@@mwboost@@X@ros@@AEBV?$function@$$A6AXAEBV?$shared_ptr@$$CBU?$msg_cm_@V?$allocator@X@std@@@cm@@@mwboost@@@Z@mwboost@@AEBV?$function@$$A6A?AV?$shared_ptr@U?$msg_cm_@V?$allocator@X@std@@@cm@@@mwboost@@XZ@4@@mwboost@@YA?AV?$shared_ptr@V?$SubscriptionCallbackHelperT@AEBV?$shared_ptr@$$CBU?$msg_cm_@V?$allocator@X@std@@@cm@@@mwboost@@X@ros@@@0@AEBV?$function@$$A6AXAEBV?$shared_ptr@$$CBU?$msg_cm_@V?$allocator@X@std@@@cm@@@mwboost@@@Z@0@AEBV?$function@$$A6A?AV?$shared_ptr@U?$msg_cm_@V?$allocator@X@std@@@cm@@@mwboost@@XZ@0@@Z
	??$make_shared@V?$map@V?$basic_string@DU?$char_traits@D@std@@V?$allocator@D@2@@std@@V12@U?$less@V?$basic_string@DU?$char_traits@D@std@@V?$allocator@D@2@@std@@@2@V?$allocator@U?$pair@$$CBV?$basic_string@DU?$char_traits@D@std@@V?$allocator@D@2@@std@@V12@@std@@@2@@std@@$$V@mwboost@@YA?AV?$shared_ptr@V?$map@V?$basic_string@DU?$char_traits@D@std@@V?$allocator@D@2@@std@@V12@U?$less@V?$basic_string@DU?$char_traits@D@std@@V?$allocator@D@2@@std@@@2@V?$allocator@U?$pair@$$CBV?$basic_string@DU?$char_traits@D@std@@V?$allocator@D@2@@std@@V12@@std@@@2@@std@@@0@XZ
	??$make_shared@VPublisher@ros@@V12@@std@@YA?AV?$shared_ptr@VPublisher@ros@@@0@$$QEAVPublisher@ros@@@Z
	??$make_shared@VSubscriber@ros@@V12@@std@@YA?AV?$shared_ptr@VSubscriber@ros@@@0@$$QEAVSubscriber@ros@@@Z
	??$move@AEAV?$TypedArray@N@data@matlab@@@std@@YA$$QEAV?$TypedArray@N@data@matlab@@AEAV123@@Z
	??$move@AEAV?$TypedArray@VArray@data@matlab@@@data@matlab@@@std@@YA$$QEAV?$TypedArray@VArray@data@matlab@@@data@matlab@@AEAV123@@Z
	??$move@AEAV?$TypedArray@VStruct@data@matlab@@@data@matlab@@@std@@YA$$QEAV?$TypedArray@VStruct@data@matlab@@@data@matlab@@AEAV123@@Z
	??$onPluginDeletion@V?$MATLABROSMsgInterface@U?$Header_@V?$allocator@X@std@@@std_msgs@@@@@ClassLoader@ros1_class_loader@@AEAAXPEAV?$MATLABROSMsgInterface@U?$Header_@V?$allocator@X@std@@@std_msgs@@@@@Z
	??$publish@U?$msg_cm_@V?$allocator@X@std@@@cm@@@Publisher@ros@@QEBAXAEBV?$shared_ptr@U?$msg_cm_@V?$allocator@X@std@@@cm@@@mwboost@@@Z
	??$read@UIStream@serialization@ros@@@?$Serializer@I@serialization@ros@@SAXAEAUIStream@12@AEAI@Z
	??$read@UIStream@serialization@ros@@@?$Serializer@V?$basic_string@DU?$char_traits@D@std@@V?$allocator@D@2@@std@@@serialization@ros@@SAXAEAUIStream@12@AEAV?$basic_string@DU?$char_traits@D@std@@V?$allocator@D@2@@std@@@Z
	??$read@UIStream@serialization@ros@@@?$VectorSerializer@NV?$allocator@N@std@@X@serialization@ros@@SAXAEAUIStream@12@AEAV?$vector@NV?$allocator@N@std@@@std@@@Z
	??$read@UIStream@serialization@ros@@@?$VectorSerializer@V?$basic_string@DU?$char_traits@D@std@@V?$allocator@D@2@@std@@V?$allocator@V?$basic_string@DU?$char_traits@D@std@@V?$allocator@D@2@@std@@@2@X@serialization@ros@@SAXAEAUIStream@12@AEAV?$vector@V?$basic_string@DU?$char_traits@D@std@@V?$allocator@D@2@@std@@V?$allocator@V?$basic_string@DU?$char_traits@D@std@@V?$allocator@D@2@@std@@@2@@std@@@Z
	??$registerPlugin@Vcm_msg_cm_message@@VROSMsgElementInterfaceFactory@@@impl@ros1_class_loader@@YAXAEBV?$basic_string@DU?$char_traits@D@std@@V?$allocator@D@2@@std@@0@Z
	??$registerPlugin@Vcm_msg_msg_cm_common@@V?$MATLABROSMsgInterface@U?$msg_cm_@V?$allocator@X@std@@@cm@@@@@impl@ros1_class_loader@@YAXAEBV?$basic_string@DU?$char_traits@D@std@@V?$allocator@D@2@@std@@0@Z
	??$reset@E@?$shared_array@E@mwboost@@QEAAXPEAE@Z
	??$reset@VArrayImpl@impl@data@matlab@@V<lambda_49bc69670bef5877f460780ec06c4b58>@@$0A@@?$shared_ptr@VArrayImpl@impl@data@matlab@@@std@@QEAAXPEAVArrayImpl@impl@data@matlab@@V<lambda_49bc69670bef5877f460780ec06c4b58>@@@Z
	??$reset@VArrayImpl@impl@data@matlab@@V<lambda_7221354e2161a523b28f93cf96116df6>@@$0A@@?$shared_ptr@VArrayImpl@impl@data@matlab@@@std@@QEAAXPEAVArrayImpl@impl@data@matlab@@V<lambda_7221354e2161a523b28f93cf96116df6>@@@Z
	??$reset@VArrayImpl@impl@data@matlab@@V<lambda_8717c4bee2934487c85bc1f9f4a10ac1>@@$0A@@?$shared_ptr@VArrayImpl@impl@data@matlab@@@std@@QEAAXPEAVArrayImpl@impl@data@matlab@@V<lambda_8717c4bee2934487c85bc1f9f4a10ac1>@@@Z
	??$reset@VArrayImpl@impl@data@matlab@@V<lambda_e914d30eff449a87d58ddc0a6ee00afb>@@$0A@@?$shared_ptr@VArrayImpl@impl@data@matlab@@@std@@QEAAXPEAVArrayImpl@impl@data@matlab@@V<lambda_e914d30eff449a87d58ddc0a6ee00afb>@@@Z
	??$resolveFunction@P6AHHHPEA_N@Z@detail@data@matlab@@YAP6AHHHPEA_N@ZW4FunctionType@012@@Z
	??$resolveFunction@P6AHPEAPEAVArrayFactoryImpl@impl@data@matlab@@@Z@detail@data@matlab@@YAP6AHPEAPEAVArrayFactoryImpl@impl@12@@ZW4FunctionType@012@@Z
	??$resolveFunction@P6AHPEAVArrayFactoryImpl@impl@data@matlab@@HPEA_K_KPEAPEAVArrayImpl@234@@Z@detail@data@matlab@@YAP6AHPEAVArrayFactoryImpl@impl@12@HPEA_K_KPEAPEAVArrayImpl@412@@ZW4FunctionType@012@@Z
	??$resolveFunction@P6AHPEAVArrayFactoryImpl@impl@data@matlab@@PEA_K_KPEAVNameListImpl@detail@34@PEAPEAVArrayImpl@234@@Z@detail@data@matlab@@YAP6AHPEAVArrayFactoryImpl@impl@12@PEA_K_KPEAVNameListImpl@012@PEAPEAVArrayImpl@412@@ZW4FunctionType@012@@Z
	??$resolveFunction@P6AHPEAVArrayFactoryImpl@impl@data@matlab@@PEBD_KPEAPEAVArrayImpl@234@@Z@detail@data@matlab@@YAP6AHPEAVArrayFactoryImpl@impl@12@PEBD_KPEAPEAVArrayImpl@412@@ZW4FunctionType@012@@Z
	??$resolveFunction@P6AHPEAVArrayImpl@impl@data@matlab@@PEAH@Z@detail@data@matlab@@YAP6AHPEAVArrayImpl@impl@12@PEAH@ZW4FunctionType@012@@Z
	??$resolveFunction@P6AHPEAVArrayImpl@impl@data@matlab@@PEAPEB_SPEA_K@Z@detail@data@matlab@@YAP6AHPEAVArrayImpl@impl@12@PEAPEB_SPEA_K@ZW4FunctionType@012@@Z
	??$resolveFunction@P6AHPEAVArrayImpl@impl@data@matlab@@_KPEAPEAVReferenceImpl@detail@34@@Z@detail@data@matlab@@YAP6AHPEAVArrayImpl@impl@12@_KPEAPEAVReferenceImpl@012@@ZW4FunctionType@012@@Z
	??$resolveFunction@P6AHPEAVReferenceImpl@detail@data@matlab@@H_N@Z@detail@data@matlab@@YAP6AHPEAVReferenceImpl@012@H_N@ZW4FunctionType@012@@Z
	??$resolveFunction@P6AHPEAVReferenceImpl@detail@data@matlab@@PEAVArrayImpl@impl@34@@Z@detail@data@matlab@@YAP6AHPEAVReferenceImpl@012@PEAVArrayImpl@impl@12@@ZW4FunctionType@012@@Z
	??$resolveFunction@P6AHPEAVReferenceImpl@detail@data@matlab@@PEBD_K@Z@detail@data@matlab@@YAP6AHPEAVReferenceImpl@012@PEBD_K@ZW4FunctionType@012@@Z
	??$resolveFunction@P6AHPEAVReferenceImpl@detail@data@matlab@@PEBD_KPEAPEAVArrayImpl@impl@34@@Z@detail@data@matlab@@YAP6AHPEAVReferenceImpl@012@PEBD_KPEAPEAVArrayImpl@impl@12@@ZW4FunctionType@012@@Z
	??$resolveFunction@P6APEAVIteratorImpl@detail@data@matlab@@PEAV1234@@Z@detail@data@matlab@@YAP6APEAVIteratorImpl@012@PEAV3012@@ZW4FunctionType@012@@Z
	??$resolveFunction@P6APEAVIteratorImpl@detail@data@matlab@@PEAVArrayImpl@impl@34@_N@Z@detail@data@matlab@@YAP6APEAVIteratorImpl@012@PEAVArrayImpl@impl@12@_N@ZW4FunctionType@012@@Z
	??$resolveFunction@P6APEAVNameListImpl@detail@data@matlab@@_K@Z@detail@data@matlab@@YAP6APEAVNameListImpl@012@_K@ZW4FunctionType@012@@Z
	??$resolveFunction@P6AXPEAVArrayFactoryImpl@impl@data@matlab@@@Z@detail@data@matlab@@YAP6AXPEAVArrayFactoryImpl@impl@12@@ZW4FunctionType@012@@Z
	??$resolveFunction@P6AXPEAVArrayImpl@impl@data@matlab@@@Z@detail@data@matlab@@YAP6AXPEAVArrayImpl@impl@12@@ZW4FunctionType@012@@Z
	??$resolveFunction@P6AXPEAVArrayImpl@impl@data@matlab@@PEA_KPEAPEA_K@Z@detail@data@matlab@@YAP6AXPEAVArrayImpl@impl@12@PEA_KPEAPEA_K@ZW4FunctionType@012@@Z
	??$resolveFunction@P6AXPEAVIteratorImpl@detail@data@matlab@@@Z@detail@data@matlab@@YAP6AXPEAVIteratorImpl@012@@ZW4FunctionType@012@@Z
	??$resolveFunction@P6AXPEAVIteratorImpl@detail@data@matlab@@PEAPEAX@Z@detail@data@matlab@@YAP6AXPEAVIteratorImpl@012@PEAPEAX@ZW4FunctionType@012@@Z
	??$resolveFunction@P6AXPEAVNameListImpl@detail@data@matlab@@@Z@detail@data@matlab@@YAP6AXPEAVNameListImpl@012@@ZW4FunctionType@012@@Z
	??$resolveFunction@P6AXPEAVNameListImpl@detail@data@matlab@@PEBD_K@Z@detail@data@matlab@@YAP6AXPEAVNameListImpl@012@PEBD_K@ZW4FunctionType@012@@Z
	??$resolveFunction@P6AXPEAVReferenceImpl@detail@data@matlab@@@Z@detail@data@matlab@@YAP6AXPEAVReferenceImpl@012@@ZW4FunctionType@012@@Z
	??$resolveFunction@P6AXPEAVReferenceImpl@detail@data@matlab@@PEAPEAVArrayImpl@impl@34@@Z@detail@data@matlab@@YAP6AXPEAVReferenceImpl@012@PEAPEAVArrayImpl@impl@12@@ZW4FunctionType@012@@Z
	??$resolveFunction@P6A_KPEAVArrayImpl@impl@data@matlab@@@Z@detail@data@matlab@@YAP6A_KPEAVArrayImpl@impl@12@@ZW4FunctionType@012@@Z
	??$resolveFunction@P6A_NPEAVArrayImpl@impl@data@matlab@@_NPEAPEAV1234@@Z@detail@data@matlab@@YAP6A_NPEAVArrayImpl@impl@12@_NPEAPEAV3412@@ZW4FunctionType@012@@Z
	??$resolveFunctionNoExcept@P6APEAVIteratorImpl@detail@data@matlab@@PEAVArrayImpl@impl@34@_N@Z@detail@data@matlab@@YAP6APEAVIteratorImpl@012@PEAVArrayImpl@impl@12@_N@ZW4FunctionType@012@@Z
	??$serializeMessage@U?$msg_cm_@V?$allocator@X@std@@@cm@@@serialization@ros@@YA?AVSerializedMessage@1@AEBU?$msg_cm_@V?$allocator@X@std@@@cm@@@Z
	??$setElement@VArray@data@matlab@@@detail@data@matlab@@YAXPEAVReferenceImpl@012@VArray@12@H@Z
	??$sp_forward@AEBV?$function@$$A6A?AV?$shared_ptr@U?$msg_cm_@V?$allocator@X@std@@@cm@@@mwboost@@XZ@mwboost@@@detail@mwboost@@YAAEBV?$function@$$A6A?AV?$shared_ptr@U?$msg_cm_@V?$allocator@X@std@@@cm@@@mwboost@@XZ@1@AEBV21@@Z
	??$sp_forward@AEBV?$function@$$A6AXAEBV?$shared_ptr@$$CBU?$msg_cm_@V?$allocator@X@std@@@cm@@@mwboost@@@Z@mwboost@@@detail@mwboost@@YAAEBV?$function@$$A6AXAEBV?$shared_ptr@$$CBU?$msg_cm_@V?$allocator@X@std@@@cm@@@mwboost@@@Z@1@AEBV21@@Z
	??$sp_pointer_construct@$$CBVclone_base@exception_detail@mwboost@@V?$clone_impl@Ubad_alloc_@exception_detail@mwboost@@@23@@detail@mwboost@@YAXPEAV?$shared_ptr@$$CBVclone_base@exception_detail@mwboost@@@1@PEAV?$clone_impl@Ubad_alloc_@exception_detail@mwboost@@@exception_detail@1@AEAVshared_count@01@@Z
	??$sp_pointer_construct@$$CBVclone_base@exception_detail@mwboost@@V?$clone_impl@Ubad_exception_@exception_detail@mwboost@@@23@@detail@mwboost@@YAXPEAV?$shared_ptr@$$CBVclone_base@exception_detail@mwboost@@@1@PEAV?$clone_impl@Ubad_exception_@exception_detail@mwboost@@@exception_detail@1@AEAVshared_count@01@@Z
	??$static_pointer_cast@$$CBU?$msg_cm_@V?$allocator@X@std@@@cm@@$$CBX@mwboost@@YA?AV?$shared_ptr@$$CBU?$msg_cm_@V?$allocator@X@std@@@cm@@@0@$$QEAV?$shared_ptr@$$CBX@0@@Z
	??$subscribe@U?$msg_cm_@V?$allocator@X@std@@@cm@@V?$ROSSubscriberImpl@U?$msg_cm_@V?$allocator@X@std@@@cm@@V?$shared_ptr@$$CBU?$msg_cm_@V?$allocator@X@std@@@cm@@@mwboost@@Vcm_msg_msg_cm_common@@@@@NodeHandle@ros@@QEAA?AVSubscriber@1@AEBV?$basic_string@DU?$char_traits@D@std@@V?$allocator@D@2@@std@@IP8?$ROSSubscriberImpl@U?$msg_cm_@V?$allocator@X@std@@@cm@@V?$shared_ptr@$$CBU?$msg_cm_@V?$allocator@X@std@@@cm@@@mwboost@@Vcm_msg_msg_cm_common@@@@EAAXAEBV?$shared_ptr@$$CBU?$msg_cm_@V?$allocator@X@std@@@cm@@@mwboost@@@ZPEAV5@AEBVTransportHints@1@@Z
	??$throw_exception@Vbad_function_call@mwboost@@@mwboost@@YAXAEBVbad_function_call@0@@Z
	??$throw_exception@Vlock_error@mwboost@@@mwboost@@YAXAEBVlock_error@0@@Z
	??$throw_exception@Vthread_resource_error@mwboost@@@mwboost@@YAXAEBVthread_resource_error@0@@Z
	??$toHeaderString@E@Bag@rosbag@@AEBA?AV?$basic_string@DU?$char_traits@D@std@@V?$allocator@D@2@@std@@PEBE@Z
	??$toHeaderString@I@Bag@rosbag@@AEBA?AV?$basic_string@DU?$char_traits@D@std@@V?$allocator@D@2@@std@@PEBI@Z
	??$writableElements@N@?$IteratorFactory@$$YColumnMajorIterator@data@matlab@@@detail@data@matlab@@SA?AV?$Range@$$YColumnMajorIterator@data@matlab@@N@23@AEAV?$TypedArray@N@23@@Z
	??$writableElements@N@?$IteratorFactory@$$YRowMajorIterator@data@matlab@@@detail@data@matlab@@SA?AV?$Range@$$YRowMajorIterator@data@matlab@@N@23@AEAV?$TypedArray@N@23@@Z
	??$write@U?$msg_cm_@V?$allocator@X@std@@@cm@@@Bag@rosbag@@QEAAXAEBV?$basic_string@DU?$char_traits@D@std@@V?$allocator@D@2@@std@@AEBVTime@ros@@AEBV?$shared_ptr@U?$msg_cm_@V?$allocator@X@std@@@cm@@@mwboost@@V?$shared_ptr@V?$map@V?$basic_string@DU?$char_traits@D@std@@V?$allocator@D@2@@std@@V12@U?$less@V?$basic_string@DU?$char_traits@D@std@@V?$allocator@D@2@@std@@@2@V?$allocator@U?$pair@$$CBV?$basic_string@DU?$char_traits@D@std@@V?$allocator@D@2@@std@@V12@@std@@@2@@std@@@7@@Z
	??$write@UOStream@serialization@ros@@@?$Serializer@I@serialization@ros@@SAXAEAUOStream@12@I@Z
	??$write@UOStream@serialization@ros@@@?$Serializer@V?$basic_string@DU?$char_traits@D@std@@V?$allocator@D@2@@std@@@serialization@ros@@SAXAEAUOStream@12@AEBV?$basic_string@DU?$char_traits@D@std@@V?$allocator@D@2@@std@@@Z
	??$write@UOStream@serialization@ros@@@?$VectorSerializer@NV?$allocator@N@std@@X@serialization@ros@@SAXAEAUOStream@12@AEBV?$vector@NV?$allocator@N@std@@@std@@@Z
	??$write@UOStream@serialization@ros@@@?$VectorSerializer@V?$basic_string@DU?$char_traits@D@std@@V?$allocator@D@2@@std@@V?$allocator@V?$basic_string@DU?$char_traits@D@std@@V?$allocator@D@2@@std@@@2@X@serialization@ros@@SAXAEAUOStream@12@AEBV?$vector@V?$basic_string@DU?$char_traits@D@std@@V?$allocator@D@2@@std@@V?$allocator@V?$basic_string@DU?$char_traits@D@std@@V?$allocator@D@2@@std@@@2@@std@@@Z
	??$writeMessageDataRecord@U?$msg_cm_@V?$allocator@X@std@@@cm@@@Bag@rosbag@@AEAAXIAEBVTime@ros@@AEBU?$msg_cm_@V?$allocator@X@std@@@cm@@@Z
	??0<lambda_0f370ae65f102ac7a82bad354932aaa4>@@QEAA@AEBW4FunctionType@detail@data@matlab@@@Z
	??0<lambda_13bdfcd965164f51f36a5527aab1fee0>@@QEAA@AEBW4FunctionType@detail@data@matlab@@@Z
	??0<lambda_176c21c6905cf270b75ba66e243bfeb4>@@QEAA@AEBW4FunctionType@detail@data@matlab@@@Z
	??0<lambda_201592730bdf769fe2bfffaef13f66e8>@@QEAA@AEBW4FunctionType@detail@data@matlab@@@Z
	??0<lambda_269f37e20f44d03140f9167e6568acef>@@QEAA@AEBW4FunctionType@detail@data@matlab@@@Z
	??0<lambda_4f43e8ce25aa75a6d852dcaacaa3ec2b>@@QEAA@AEBW4FunctionType@detail@data@matlab@@@Z
	??0<lambda_55961c2b940488b1a47869efee919f7a>@@QEAA@AEBW4FunctionType@detail@data@matlab@@@Z
	??0<lambda_5a3da967fa0b3d738ad6bdefe7e809b1>@@QEAA@AEBW4FunctionType@detail@data@matlab@@@Z
	??0<lambda_5f8c257ece58d6518f7f7b3f44102e7b>@@QEAA@AEBW4FunctionType@detail@data@matlab@@@Z
	??0<lambda_695d040f10a98b75b53fbe763a0e3fcf>@@QEAA@AEBW4FunctionType@detail@data@matlab@@@Z
	??0<lambda_73d50c99e7c5760cdaac611e2ed40b03>@@QEAA@AEBW4FunctionType@detail@data@matlab@@@Z
	??0<lambda_77135c9c3f3ea0d5eb8309802ae069e6>@@QEAA@AEBW4FunctionType@detail@data@matlab@@@Z
	??0<lambda_788271acfceeef96eb86ecb0d6f6eb0e>@@QEAA@AEBW4FunctionType@detail@data@matlab@@@Z
	??0<lambda_7e7f3d1f1aa53fa1ba6516b644b93b01>@@QEAA@AEBW4FunctionType@detail@data@matlab@@@Z
	??0<lambda_8be2d382656ec6a4e3c6eaae250bfee4>@@QEAA@AEBW4FunctionType@detail@data@matlab@@@Z
	??0<lambda_a25eb0597b8814dd213240eb9e7defd3>@@QEAA@AEBW4FunctionType@detail@data@matlab@@@Z
	??0<lambda_a47ff836cf5d7a0ca3a0353711eb4bf1>@@QEAA@AEBW4FunctionType@detail@data@matlab@@@Z
	??0<lambda_b0c85504611ba05bc24f396e1d28962d>@@QEAA@AEBW4FunctionType@detail@data@matlab@@@Z
	??0<lambda_b45305fc15bd606cdc0402abe86e0342>@@QEAA@AEBW4FunctionType@detail@data@matlab@@@Z
	??0<lambda_c81a067a95cf8738113188358ec7a8a2>@@QEAA@AEBW4FunctionType@detail@data@matlab@@@Z
	??0<lambda_c8617b8e1fe18dddccf3a77c16335331>@@QEAA@AEBW4FunctionType@detail@data@matlab@@@Z
	??0<lambda_d2bb6da424f28e796fa3e447cfb6c15a>@@QEAA@AEBW4FunctionType@detail@data@matlab@@@Z
	??0<lambda_ec5c17b8d62791c6584de35bf1319d21>@@QEAA@AEBW4FunctionType@detail@data@matlab@@@Z
	??0<lambda_eea4cbbc629bac234384ed27dbe99b43>@@QEAA@AEBW4FunctionType@detail@data@matlab@@@Z
	??0<lambda_f1677acafd17cb4cd243f3d5a9f98c96>@@QEAA@AEBW4FunctionType@detail@data@matlab@@@Z
	??0<lambda_f5b4ff6f1bc0c2d3120d50ec6b8496ac>@@QEAA@AEBW4FunctionType@detail@data@matlab@@@Z
	??0?$AbstractMetaObject@V?$MATLABROSMsgInterface@U?$msg_cm_@V?$allocator@X@std@@@cm@@@@@impl@ros1_class_loader@@QEAA@AEBV?$basic_string@DU?$char_traits@D@std@@V?$allocator@D@2@@std@@0@Z
	??0?$AbstractMetaObject@VROSMsgElementInterfaceFactory@@@impl@ros1_class_loader@@QEAA@AEBV?$basic_string@DU?$char_traits@D@std@@V?$allocator@D@2@@std@@0@Z
	??0?$ArrayElementTypedRef@VArray@data@matlab@@$0A@@data@matlab@@AEAA@V?$shared_ptr@VReferenceImpl@detail@data@matlab@@@std@@@Z
	??0?$ArrayException@VException@matlab@@$00@detail@data@matlab@@QEAA@AEBV0123@@Z
	??0?$ArrayException@VException@matlab@@$00@detail@data@matlab@@QEAA@V?$basic_string@DU?$char_traits@D@std@@V?$allocator@D@2@@std@@@Z
	??0?$ArrayException@VException@matlab@@$01@detail@data@matlab@@QEAA@AEBV0123@@Z
	??0?$ArrayException@VException@matlab@@$01@detail@data@matlab@@QEAA@V?$basic_string@DU?$char_traits@D@std@@V?$allocator@D@2@@std@@@Z
	??0?$ArrayException@VException@matlab@@$02@detail@data@matlab@@QEAA@AEBV0123@@Z
	??0?$ArrayException@VException@matlab@@$02@detail@data@matlab@@QEAA@V?$basic_string@DU?$char_traits@D@std@@V?$allocator@D@2@@std@@@Z
	??0?$ArrayException@VException@matlab@@$04@detail@data@matlab@@QEAA@AEBV0123@@Z
	??0?$ArrayException@VException@matlab@@$04@detail@data@matlab@@QEAA@V?$basic_string@DU?$char_traits@D@std@@V?$allocator@D@2@@std@@@Z
	??0?$ArrayException@VException@matlab@@$05@detail@data@matlab@@QEAA@AEBV0123@@Z
	??0?$ArrayException@VException@matlab@@$05@detail@data@matlab@@QEAA@V?$basic_string@DU?$char_traits@D@std@@V?$allocator@D@2@@std@@@Z
	??0?$ArrayException@VException@matlab@@$06@detail@data@matlab@@QEAA@AEBV0123@@Z
	??0?$ArrayException@VException@matlab@@$06@detail@data@matlab@@QEAA@V?$basic_string@DU?$char_traits@D@std@@V?$allocator@D@2@@std@@@Z
	??0?$ArrayException@VException@matlab@@$07@detail@data@matlab@@QEAA@AEBV0123@@Z
	??0?$ArrayException@VException@matlab@@$07@detail@data@matlab@@QEAA@V?$basic_string@DU?$char_traits@D@std@@V?$allocator@D@2@@std@@@Z
	??0?$ArrayException@VException@matlab@@$08@detail@data@matlab@@QEAA@AEBV0123@@Z
	??0?$ArrayException@VException@matlab@@$08@detail@data@matlab@@QEAA@V?$basic_string@DU?$char_traits@D@std@@V?$allocator@D@2@@std@@@Z
	??0?$ArrayException@VException@matlab@@$09@detail@data@matlab@@QEAA@AEBV0123@@Z
	??0?$ArrayException@VException@matlab@@$09@detail@data@matlab@@QEAA@V?$basic_string@DU?$char_traits@D@std@@V?$allocator@D@2@@std@@@Z
	??0?$ArrayException@VException@matlab@@$0BA@@detail@data@matlab@@QEAA@AEBV0123@@Z
	??0?$ArrayException@VException@matlab@@$0BA@@detail@data@matlab@@QEAA@V?$basic_string@DU?$char_traits@D@std@@V?$allocator@D@2@@std@@@Z
	??0?$ArrayException@VException@matlab@@$0BB@@detail@data@matlab@@QEAA@AEBV0123@@Z
	??0?$ArrayException@VException@matlab@@$0BB@@detail@data@matlab@@QEAA@V?$basic_string@DU?$char_traits@D@std@@V?$allocator@D@2@@std@@@Z
	??0?$ArrayException@VException@matlab@@$0BC@@detail@data@matlab@@QEAA@AEBV0123@@Z
	??0?$ArrayException@VException@matlab@@$0BC@@detail@data@matlab@@QEAA@V?$basic_string@DU?$char_traits@D@std@@V?$allocator@D@2@@std@@@Z
	??0?$ArrayException@VException@matlab@@$0BD@@detail@data@matlab@@QEAA@AEBV0123@@Z
	??0?$ArrayException@VException@matlab@@$0BD@@detail@data@matlab@@QEAA@V?$basic_string@DU?$char_traits@D@std@@V?$allocator@D@2@@std@@@Z
	??0?$ArrayException@VException@matlab@@$0BE@@detail@data@matlab@@QEAA@AEBV0123@@Z
	??0?$ArrayException@VException@matlab@@$0BE@@detail@data@matlab@@QEAA@V?$basic_string@DU?$char_traits@D@std@@V?$allocator@D@2@@std@@@Z
	??0?$ArrayException@VException@matlab@@$0BF@@detail@data@matlab@@QEAA@AEBV0123@@Z
	??0?$ArrayException@VException@matlab@@$0BF@@detail@data@matlab@@QEAA@V?$basic_string@DU?$char_traits@D@std@@V?$allocator@D@2@@std@@@Z
	??0?$ArrayException@VException@matlab@@$0BG@@detail@data@matlab@@QEAA@AEBV0123@@Z
	??0?$ArrayException@VException@matlab@@$0BG@@detail@data@matlab@@QEAA@V?$basic_string@DU?$char_traits@D@std@@V?$allocator@D@2@@std@@@Z
	??0?$ArrayException@VException@matlab@@$0BH@@detail@data@matlab@@QEAA@AEBV0123@@Z
	??0?$ArrayException@VException@matlab@@$0BH@@detail@data@matlab@@QEAA@V?$basic_string@DU?$char_traits@D@std@@V?$allocator@D@2@@std@@@Z
	??0?$ArrayException@VException@matlab@@$0BI@@detail@data@matlab@@QEAA@AEBV0123@@Z
	??0?$ArrayException@VException@matlab@@$0BI@@detail@data@matlab@@QEAA@V?$basic_string@DU?$char_traits@D@std@@V?$allocator@D@2@@std@@@Z
	??0?$ArrayException@VException@matlab@@$0BJ@@detail@data@matlab@@QEAA@AEBV0123@@Z
	??0?$ArrayException@VException@matlab@@$0BJ@@detail@data@matlab@@QEAA@V?$basic_string@DU?$char_traits@D@std@@V?$allocator@D@2@@std@@@Z
	??0?$ArrayException@VException@matlab@@$0BK@@detail@data@matlab@@QEAA@AEBV0123@@Z
	??0?$ArrayException@VException@matlab@@$0BK@@detail@data@matlab@@QEAA@V?$basic_string@DU?$char_traits@D@std@@V?$allocator@D@2@@std@@@Z
	??0?$ArrayException@VException@matlab@@$0BL@@detail@data@matlab@@QEAA@AEBV0123@@Z
	??0?$ArrayException@VException@matlab@@$0BL@@detail@data@matlab@@QEAA@V?$basic_string@DU?$char_traits@D@std@@V?$allocator@D@2@@std@@@Z
	??0?$ArrayException@VException@matlab@@$0BM@@detail@data@matlab@@QEAA@AEBV0123@@Z
	??0?$ArrayException@VException@matlab@@$0BM@@detail@data@matlab@@QEAA@V?$basic_string@DU?$char_traits@D@std@@V?$allocator@D@2@@std@@@Z
	??0?$ArrayException@VException@matlab@@$0BN@@detail@data@matlab@@QEAA@AEBV0123@@Z
	??0?$ArrayException@VException@matlab@@$0BN@@detail@data@matlab@@QEAA@V?$basic_string@DU?$char_traits@D@std@@V?$allocator@D@2@@std@@@Z
	??0?$ArrayException@VException@matlab@@$0BO@@detail@data@matlab@@QEAA@AEBV0123@@Z
	??0?$ArrayException@VException@matlab@@$0BO@@detail@data@matlab@@QEAA@V?$basic_string@DU?$char_traits@D@std@@V?$allocator@D@2@@std@@@Z
	??0?$ArrayException@VException@matlab@@$0BP@@detail@data@matlab@@QEAA@AEBV0123@@Z
	??0?$ArrayException@VException@matlab@@$0BP@@detail@data@matlab@@QEAA@V?$basic_string@DU?$char_traits@D@std@@V?$allocator@D@2@@std@@@Z
	??0?$ArrayException@VException@matlab@@$0CA@@detail@data@matlab@@QEAA@AEBV0123@@Z
	??0?$ArrayException@VException@matlab@@$0CA@@detail@data@matlab@@QEAA@V?$basic_string@DU?$char_traits@D@std@@V?$allocator@D@2@@std@@@Z
	??0?$ArrayException@VException@matlab@@$0CB@@detail@data@matlab@@QEAA@AEBV0123@@Z
	??0?$ArrayException@VException@matlab@@$0CB@@detail@data@matlab@@QEAA@V?$basic_string@DU?$char_traits@D@std@@V?$allocator@D@2@@std@@@Z
	??0?$ArrayException@VException@matlab@@$0CC@@detail@data@matlab@@QEAA@AEBV0123@@Z
	??0?$ArrayException@VException@matlab@@$0CC@@detail@data@matlab@@QEAA@V?$basic_string@DU?$char_traits@D@std@@V?$allocator@D@2@@std@@@Z
	??0?$ArrayException@VException@matlab@@$0CD@@detail@data@matlab@@QEAA@AEBV0123@@Z
	??0?$ArrayException@VException@matlab@@$0CD@@detail@data@matlab@@QEAA@V?$basic_string@DU?$char_traits@D@std@@V?$allocator@D@2@@std@@@Z
	??0?$ArrayException@VException@matlab@@$0CE@@detail@data@matlab@@QEAA@AEBV0123@@Z
	??0?$ArrayException@VException@matlab@@$0CE@@detail@data@matlab@@QEAA@V?$basic_string@DU?$char_traits@D@std@@V?$allocator@D@2@@std@@@Z
	??0?$ArrayException@VException@matlab@@$0CF@@detail@data@matlab@@QEAA@AEBV0123@@Z
	??0?$ArrayException@VException@matlab@@$0CF@@detail@data@matlab@@QEAA@V?$basic_string@DU?$char_traits@D@std@@V?$allocator@D@2@@std@@@Z
	??0?$ArrayException@VException@matlab@@$0CG@@detail@data@matlab@@QEAA@AEBV0123@@Z
	??0?$ArrayException@VException@matlab@@$0CG@@detail@data@matlab@@QEAA@V?$basic_string@DU?$char_traits@D@std@@V?$allocator@D@2@@std@@@Z
	??0?$ArrayException@VException@matlab@@$0CH@@detail@data@matlab@@QEAA@AEBV0123@@Z
	??0?$ArrayException@VException@matlab@@$0CH@@detail@data@matlab@@QEAA@V?$basic_string@DU?$char_traits@D@std@@V?$allocator@D@2@@std@@@Z
	??0?$ArrayException@VException@matlab@@$0CI@@detail@data@matlab@@QEAA@AEBV0123@@Z
	??0?$ArrayException@VException@matlab@@$0CI@@detail@data@matlab@@QEAA@V?$basic_string@DU?$char_traits@D@std@@V?$allocator@D@2@@std@@@Z
	??0?$ArrayException@VException@matlab@@$0CJ@@detail@data@matlab@@QEAA@AEBV0123@@Z
	??0?$ArrayException@VException@matlab@@$0CJ@@detail@data@matlab@@QEAA@V?$basic_string@DU?$char_traits@D@std@@V?$allocator@D@2@@std@@@Z
	??0?$ArrayException@VException@matlab@@$0CK@@detail@data@matlab@@QEAA@AEBV0123@@Z
	??0?$ArrayException@VException@matlab@@$0CK@@detail@data@matlab@@QEAA@V?$basic_string@DU?$char_traits@D@std@@V?$allocator@D@2@@std@@@Z
	??0?$ArrayException@VException@matlab@@$0CL@@detail@data@matlab@@QEAA@AEBV0123@@Z
	??0?$ArrayException@VException@matlab@@$0CL@@detail@data@matlab@@QEAA@V?$basic_string@DU?$char_traits@D@std@@V?$allocator@D@2@@std@@@Z
	??0?$ArrayException@VException@matlab@@$0CM@@detail@data@matlab@@QEAA@AEBV0123@@Z
	??0?$ArrayException@VException@matlab@@$0CM@@detail@data@matlab@@QEAA@V?$basic_string@DU?$char_traits@D@std@@V?$allocator@D@2@@std@@@Z
	??0?$ArrayException@VException@matlab@@$0CN@@detail@data@matlab@@QEAA@AEBV0123@@Z
	??0?$ArrayException@VException@matlab@@$0CN@@detail@data@matlab@@QEAA@V?$basic_string@DU?$char_traits@D@std@@V?$allocator@D@2@@std@@@Z
	??0?$ArrayException@VException@matlab@@$0CO@@detail@data@matlab@@QEAA@AEBV0123@@Z
	??0?$ArrayException@VException@matlab@@$0CO@@detail@data@matlab@@QEAA@V?$basic_string@DU?$char_traits@D@std@@V?$allocator@D@2@@std@@@Z
	??0?$ArrayException@VException@matlab@@$0CP@@detail@data@matlab@@QEAA@AEBV0123@@Z
	??0?$ArrayException@VException@matlab@@$0CP@@detail@data@matlab@@QEAA@V?$basic_string@DU?$char_traits@D@std@@V?$allocator@D@2@@std@@@Z
	??0?$ArrayException@VException@matlab@@$0DD@@detail@data@matlab@@QEAA@AEBV0123@@Z
	??0?$ArrayException@VException@matlab@@$0DD@@detail@data@matlab@@QEAA@V?$basic_string@DU?$char_traits@D@std@@V?$allocator@D@2@@std@@@Z
	??0?$ArrayException@VException@matlab@@$0L@@detail@data@matlab@@QEAA@AEBV0123@@Z
	??0?$ArrayException@VException@matlab@@$0L@@detail@data@matlab@@QEAA@V?$basic_string@DU?$char_traits@D@std@@V?$allocator@D@2@@std@@@Z
	??0?$ArrayException@VException@matlab@@$0M@@detail@data@matlab@@QEAA@AEBV0123@@Z
	??0?$ArrayException@VException@matlab@@$0M@@detail@data@matlab@@QEAA@V?$basic_string@DU?$char_traits@D@std@@V?$allocator@D@2@@std@@@Z
	??0?$ArrayException@VException@matlab@@$0N@@detail@data@matlab@@QEAA@AEBV0123@@Z
	??0?$ArrayException@VException@matlab@@$0N@@detail@data@matlab@@QEAA@V?$basic_string@DU?$char_traits@D@std@@V?$allocator@D@2@@std@@@Z
	??0?$ArrayException@VException@matlab@@$0O@@detail@data@matlab@@QEAA@AEBV0123@@Z
	??0?$ArrayException@VException@matlab@@$0O@@detail@data@matlab@@QEAA@V?$basic_string@DU?$char_traits@D@std@@V?$allocator@D@2@@std@@@Z
	??0?$ArrayException@VException@matlab@@$0P@@detail@data@matlab@@QEAA@AEBV0123@@Z
	??0?$ArrayException@VException@matlab@@$0P@@detail@data@matlab@@QEAA@V?$basic_string@DU?$char_traits@D@std@@V?$allocator@D@2@@std@@@Z
	??0?$ArrayIndex@VColumnMajorOrder@detail@data@matlab@@@detail@data@matlab@@QEAA@$$QEAV0123@@Z
	??0?$ArrayIndex@VColumnMajorOrder@detail@data@matlab@@@detail@data@matlab@@QEAA@AEBV0123@@Z
	??0?$ArrayIndex@VColumnMajorOrder@detail@data@matlab@@@detail@data@matlab@@QEAA@AEBV?$vector@_KV?$allocator@_K@std@@@std@@_N@Z
	??0?$ArrayIndex@VRowMajorOrder@detail@data@matlab@@@detail@data@matlab@@QEAA@$$QEAV0123@@Z
	??0?$ArrayIndex@VRowMajorOrder@detail@data@matlab@@@detail@data@matlab@@QEAA@AEBV0123@@Z
	??0?$ArrayIndex@VRowMajorOrder@detail@data@matlab@@@detail@data@matlab@@QEAA@AEBV?$vector@_KV?$allocator@_K@std@@@std@@_N@Z
	??0?$MATLABROSMsgInterface@U?$msg_cm_@V?$allocator@X@std@@@cm@@@@QEAA@AEBV0@@Z
	??0?$MATLABROSMsgInterface@U?$msg_cm_@V?$allocator@X@std@@@cm@@@@QEAA@XZ
	??0?$MessageEvent@$$CBU?$msg_cm_@V?$allocator@X@std@@@cm@@@ros@@QEAA@AEBV?$MessageEvent@$$CBX@1@AEBV?$function@$$A6A?AV?$shared_ptr@U?$msg_cm_@V?$allocator@X@std@@@cm@@@mwboost@@XZ@mwboost@@@Z
	??0?$OrderedIterator@NVColumnMajorOrder@detail@data@matlab@@@detail@data@matlab@@QEAA@$$QEAV0123@@Z
	??0?$OrderedIterator@NVColumnMajorOrder@detail@data@matlab@@@detail@data@matlab@@QEAA@$$QEAV?$TypedIterator@N@23@_NAEBV?$vector@_KV?$allocator@_K@std@@@std@@W4MemoryLayout@23@@Z
	??0?$OrderedIterator@NVColumnMajorOrder@detail@data@matlab@@@detail@data@matlab@@QEAA@AEBV0123@@Z
	??0?$OrderedIterator@NVRowMajorOrder@detail@data@matlab@@@detail@data@matlab@@QEAA@$$QEAV0123@@Z
	??0?$OrderedIterator@NVRowMajorOrder@detail@data@matlab@@@detail@data@matlab@@QEAA@$$QEAV?$TypedIterator@N@23@_NAEBV?$vector@_KV?$allocator@_K@std@@@std@@W4MemoryLayout@23@@Z
	??0?$OrderedIterator@NVRowMajorOrder@detail@data@matlab@@@detail@data@matlab@@QEAA@AEBV0123@@Z
	??0?$ROSSubscriberImpl@U?$msg_cm_@V?$allocator@X@std@@@cm@@V?$shared_ptr@$$CBU?$msg_cm_@V?$allocator@X@std@@@cm@@@mwboost@@Vcm_msg_msg_cm_common@@@@QEAA@XZ
	??0?$SubscriptionCallbackHelperT@AEBV?$shared_ptr@$$CBU?$msg_cm_@V?$allocator@X@std@@@cm@@@mwboost@@X@ros@@QEAA@AEBV?$function@$$A6AXV?$shared_ptr@$$CBU?$msg_cm_@V?$allocator@X@std@@@cm@@@mwboost@@@Z@mwboost@@AEBV?$function@$$A6A?AV?$shared_ptr@U?$msg_cm_@V?$allocator@X@std@@@cm@@@mwboost@@XZ@3@@Z
	??0?$TypedArray@N@data@matlab@@QEAA@$$QEAV012@@Z
	??0?$TypedArray@N@data@matlab@@QEAA@$$QEAVArray@12@@Z
	??0?$TypedArray@VArray@data@matlab@@@data@matlab@@QEAA@$$QEAVArray@12@@Z
	??0?$TypedArray@VStruct@data@matlab@@@data@matlab@@QEAA@$$QEAVArray@12@@Z
	??0?$TypedIterator@$$CBN@data@matlab@@AEAA@PEAVIteratorImpl@detail@12@@Z
	??0?$TypedIterator@$$CBN@data@matlab@@QEAA@$$QEAV012@@Z
	??0?$TypedIterator@$$CBN@data@matlab@@QEAA@AEBV012@@Z
	??0?$TypedIterator@N@data@matlab@@AEAA@PEAVIteratorImpl@detail@12@@Z
	??0?$TypedIterator@N@data@matlab@@QEAA@$$QEAV012@@Z
	??0?$TypedIterator@N@data@matlab@@QEAA@AEBV012@@Z
	??0?$_String_val@U?$_Simple_types@D@std@@@std@@QEAA@XZ
	??0?$_Tree_unchecked_const_iterator@V?$_Tree_val@U?$_Tree_simple_types@U?$pair@$$CBV?$basic_string@DU?$char_traits@D@std@@V?$allocator@D@2@@std@@I@std@@@std@@@std@@U_Iterator_base0@2@@std@@QEAA@PEAU?$_Tree_node@U?$pair@$$CBV?$basic_string@DU?$char_traits@D@std@@V?$allocator@D@2@@std@@I@std@@PEAX@1@PEBV?$_Tree_val@U?$_Tree_simple_types@U?$pair@$$CBV?$basic_string@DU?$char_traits@D@std@@V?$allocator@D@2@@std@@I@std@@@std@@@1@@Z
	??0?$_Tree_unchecked_const_iterator@V?$_Tree_val@U?$_Tree_simple_types@U?$pair@$$CBV?$basic_string@DU?$char_traits@D@std@@V?$allocator@D@2@@std@@V?$shared_ptr@VMATLABROSMsgInterfaceBase@@@mwboost@@@std@@@std@@@std@@U_Iterator_base0@2@@std@@QEAA@PEAU?$_Tree_node@U?$pair@$$CBV?$basic_string@DU?$char_traits@D@std@@V?$allocator@D@2@@std@@V?$shared_ptr@VMATLABROSMsgInterfaceBase@@@mwboost@@@std@@PEAX@1@PEBV?$_Tree_val@U?$_Tree_simple_types@U?$pair@$$CBV?$basic_string@DU?$char_traits@D@std@@V?$allocator@D@2@@std@@V?$shared_ptr@VMATLABROSMsgInterfaceBase@@@mwboost@@@std@@@std@@@1@@Z
	??0?$_Tree_unchecked_const_iterator@V?$_Tree_val@U?$_Tree_simple_types@U?$pair@$$CBV?$map@V?$basic_string@DU?$char_traits@D@std@@V?$allocator@D@2@@std@@V12@U?$less@V?$basic_string@DU?$char_traits@D@std@@V?$allocator@D@2@@std@@@2@V?$allocator@U?$pair@$$CBV?$basic_string@DU?$char_traits@D@std@@V?$allocator@D@2@@std@@V12@@std@@@2@@std@@I@std@@@std@@@std@@U_Iterator_base0@2@@std@@QEAA@PEAU?$_Tree_node@U?$pair@$$CBV?$map@V?$basic_string@DU?$char_traits@D@std@@V?$allocator@D@2@@std@@V12@U?$less@V?$basic_string@DU?$char_traits@D@std@@V?$allocator@D@2@@std@@@2@V?$allocator@U?$pair@$$CBV?$basic_string@DU?$char_traits@D@std@@V?$allocator@D@2@@std@@V12@@std@@@2@@std@@I@std@@PEAX@1@PEBV?$_Tree_val@U?$_Tree_simple_types@U?$pair@$$CBV?$map@V?$basic_string@DU?$char_traits@D@std@@V?$allocator@D@2@@std@@V12@U?$less@V?$basic_string@DU?$char_traits@D@std@@V?$allocator@D@2@@std@@@2@V?$allocator@U?$pair@$$CBV?$basic_string@DU?$char_traits@D@std@@V?$allocator@D@2@@std@@V12@@std@@@2@@std@@I@std@@@std@@@1@@Z
	??0?$_Vector_val@U?$_Simple_types@V?$basic_string@DU?$char_traits@D@std@@V?$allocator@D@2@@std@@@std@@@std@@QEAA@XZ
	??0?$allocator@U?$pair@W4FunctionType@detail@data@matlab@@V?$basic_string@DU?$char_traits@D@std@@V?$allocator@D@2@@std@@@std@@@std@@QEAA@XZ
	??0?$basic_string@DU?$char_traits@D@std@@V?$allocator@D@2@@std@@QEAA@$$QEAV01@@Z
	??0?$basic_string@DU?$char_traits@D@std@@V?$allocator@D@2@@std@@QEAA@AEBV01@@Z
	??0?$basic_string@DU?$char_traits@D@std@@V?$allocator@D@2@@std@@QEAA@QEBD@Z
	??0?$basic_string@DU?$char_traits@D@std@@V?$allocator@D@2@@std@@QEAA@QEBD_K@Z
	??0?$basic_string@DU?$char_traits@D@std@@V?$allocator@D@2@@std@@QEAA@U_String_constructor_concat_tag@1@AEAV01@1@Z
	??0?$basic_string@DU?$char_traits@D@std@@V?$allocator@D@2@@std@@QEAA@U_String_constructor_concat_tag@1@AEBV01@QEBD_K23@Z
	??0?$basic_string@DU?$char_traits@D@std@@V?$allocator@D@2@@std@@QEAA@XZ
	??0?$clone_impl@Ubad_alloc_@exception_detail@mwboost@@@exception_detail@mwboost@@AEAA@AEBV012@Uclone_tag@012@@Z
	??0?$clone_impl@Ubad_alloc_@exception_detail@mwboost@@@exception_detail@mwboost@@QEAA@AEBUbad_alloc_@12@@Z
	??0?$clone_impl@Ubad_alloc_@exception_detail@mwboost@@@exception_detail@mwboost@@QEAA@AEBV012@@Z
	??0?$clone_impl@Ubad_exception_@exception_detail@mwboost@@@exception_detail@mwboost@@AEAA@AEBV012@Uclone_tag@012@@Z
	??0?$clone_impl@Ubad_exception_@exception_detail@mwboost@@@exception_detail@mwboost@@QEAA@AEBUbad_exception_@12@@Z
	??0?$clone_impl@Ubad_exception_@exception_detail@mwboost@@@exception_detail@mwboost@@QEAA@AEBV012@@Z
	??0?$initializer_list@U?$pair@W4FunctionType@detail@data@matlab@@V?$basic_string@DU?$char_traits@D@std@@V?$allocator@D@2@@std@@@std@@@std@@QEAA@PEBU?$pair@W4FunctionType@detail@data@matlab@@V?$basic_string@DU?$char_traits@D@std@@V?$allocator@D@2@@std@@@1@0@Z
	??0?$map@V?$basic_string@DU?$char_traits@D@std@@V?$allocator@D@2@@std@@V12@U?$less@V?$basic_string@DU?$char_traits@D@std@@V?$allocator@D@2@@std@@@2@V?$allocator@U?$pair@$$CBV?$basic_string@DU?$char_traits@D@std@@V?$allocator@D@2@@std@@V12@@std@@@2@@std@@QEAA@XZ
	??0?$msg_cm_@V?$allocator@X@std@@@cm@@QEAA@XZ
	??0?$multiset@UIndexEntry@rosbag@@U?$less@UIndexEntry@rosbag@@@std@@V?$allocator@UIndexEntry@rosbag@@@4@@std@@QEAA@XZ
	??0?$shared_ptr@VArrayImpl@impl@data@matlab@@@std@@QEAA@$$QEAV01@@Z
	??0?$shared_ptr@VArrayImpl@impl@data@matlab@@@std@@QEAA@AEBV01@@Z
	??0?$shared_ptr@VReferenceImpl@detail@data@matlab@@@std@@QEAA@AEBV01@@Z
	??0?$vector@NV?$allocator@N@std@@@std@@QEAA@AEBV01@@Z
	??0?$vector@U?$pair@W4FunctionType@detail@data@matlab@@V?$basic_string@DU?$char_traits@D@std@@V?$allocator@D@2@@std@@@std@@V?$allocator@U?$pair@W4FunctionType@detail@data@matlab@@V?$basic_string@DU?$char_traits@D@std@@V?$allocator@D@2@@std@@@std@@@2@@std@@QEAA@V?$initializer_list@U?$pair@W4FunctionType@detail@data@matlab@@V?$basic_string@DU?$char_traits@D@std@@V?$allocator@D@2@@std@@@std@@@1@AEBV?$allocator@U?$pair@W4FunctionType@detail@data@matlab@@V?$basic_string@DU?$char_traits@D@std@@V?$allocator@D@2@@std@@@std@@@1@@Z
	??0?$vector@V?$basic_string@DU?$char_traits@D@std@@V?$allocator@D@2@@std@@V?$allocator@V?$basic_string@DU?$char_traits@D@std@@V?$allocator@D@2@@std@@@2@@std@@QEAA@$$QEAV01@@Z
	??0?$vector@V?$basic_string@DU?$char_traits@D@std@@V?$allocator@D@2@@std@@V?$allocator@V?$basic_string@DU?$char_traits@D@std@@V?$allocator@D@2@@std@@@2@@std@@QEAA@AEBV01@@Z
	??0?$vector@V?$basic_string@DU?$char_traits@D@std@@V?$allocator@D@2@@std@@V?$allocator@V?$basic_string@DU?$char_traits@D@std@@V?$allocator@D@2@@std@@@2@@std@@QEAA@V?$initializer_list@V?$basic_string@DU?$char_traits@D@std@@V?$allocator@D@2@@std@@@1@AEBV?$allocator@V?$basic_string@DU?$char_traits@D@std@@V?$allocator@D@2@@std@@@1@@Z
	??0?$vector@VArray@data@matlab@@V?$allocator@VArray@data@matlab@@@std@@@std@@QEAA@V?$initializer_list@VArray@data@matlab@@@1@AEBV?$allocator@VArray@data@matlab@@@1@@Z
	??0?$vector@_JV?$allocator@_J@std@@@std@@QEAA@$$QEAV01@@Z
	??0?$vector@_JV?$allocator@_J@std@@@std@@QEAA@AEBV01@@Z
	??0?$vector@_KV?$allocator@_K@std@@@std@@QEAA@$$QEAV01@@Z
	??0?$vector@_KV?$allocator@_K@std@@@std@@QEAA@AEBV01@@Z
	??0?$vector@_KV?$allocator@_K@std@@@std@@QEAA@V?$initializer_list@_K@1@AEBV?$allocator@_K@1@@Z
	??0?$wrapexcept@Vbad_function_call@mwboost@@@mwboost@@QEAA@AEBU01@@Z
	??0?$wrapexcept@Vbad_function_call@mwboost@@@mwboost@@QEAA@AEBVbad_function_call@1@@Z
	??0?$wrapexcept@Vlock_error@mwboost@@@mwboost@@QEAA@AEBU01@@Z
	??0?$wrapexcept@Vlock_error@mwboost@@@mwboost@@QEAA@AEBVlock_error@1@@Z
	??0?$wrapexcept@Vthread_resource_error@mwboost@@@mwboost@@QEAA@AEBU01@@Z
	??0?$wrapexcept@Vthread_resource_error@mwboost@@@mwboost@@QEAA@AEBVthread_resource_error@1@@Z
	??0Array@data@matlab@@IEAA@PEAVArrayImpl@impl@12@@Z
	??0Array@data@matlab@@QEAA@$$QEAV012@@Z
	??0Array@data@matlab@@QEAA@AEBV012@@Z
	??0ArrayFactory@data@matlab@@QEAA@XZ
	??0ArrayReferenceExt@data@matlab@@IEAA@V?$shared_ptr@VReferenceImpl@detail@data@matlab@@@std@@@Z
	??0BagException@rosbag@@QEAA@AEBV01@@Z
	??0BagException@rosbag@@QEAA@AEBV?$basic_string@DU?$char_traits@D@std@@V?$allocator@D@2@@std@@@Z
	??0ClassLoaderException@ros1_class_loader@@QEAA@AEBV01@@Z
	??0CreateClassException@ros1_class_loader@@QEAA@AEBV01@@Z
	??0CreateClassException@ros1_class_loader@@QEAA@AEBV?$basic_string@DU?$char_traits@D@std@@V?$allocator@D@2@@std@@@Z
	??0Exception@matlab@@QEAA@AEBV01@@Z
	??0Exception@ros@@QEAA@AEBV01@@Z
	??0NameList@ArrayFactory@data@matlab@@QEAA@PEAVNameListImpl@detail@23@@Z
	??0ReferenceHolder@data@matlab@@IEAA@PEAVReferenceImpl@detail@12@@Z
	??0ReferenceHolder@data@matlab@@IEAA@V?$shared_ptr@VReferenceImpl@detail@data@matlab@@@std@@@Z
	??0Struct@data@matlab@@AEAA@V?$shared_ptr@VReferenceImpl@detail@data@matlab@@@std@@@Z
	??0bad_alloc@std@@QEAA@AEBV01@@Z
	??0bad_alloc_@exception_detail@mwboost@@QEAA@AEBU012@@Z
	??0bad_alloc_@exception_detail@mwboost@@QEAA@XZ
	??0bad_array_new_length@std@@QEAA@AEBV01@@Z
	??0bad_array_new_length@std@@QEAA@XZ
	??0bad_exception@std@@QEAA@AEBV01@@Z
	??0bad_exception_@exception_detail@mwboost@@QEAA@AEBU012@@Z
	??0bad_exception_@exception_detail@mwboost@@QEAA@XZ
	??0bad_function_call@mwboost@@QEAA@AEBV01@@Z
	??0bad_function_call@mwboost@@QEAA@XZ
	??0clone_base@exception_detail@mwboost@@QEAA@AEBV012@@Z
	??0cm_msg_cm_message@@QEAA@AEBV0@@Z
	??0cm_msg_cm_message@@QEAA@XZ
	??0cm_msg_msg_cm_common@@QEAA@AEBV0@@Z
	??0cm_msg_msg_cm_common@@QEAA@XZ
	??0error_code@system@mwboost@@QEAA@HAEBVerror_category@12@@Z
	??0exception@mwboost@@QEAA@AEBV01@@Z
	??0exception@std@@QEAA@AEBV01@@Z
	??0exception@std@@QEAA@QEBD@Z
	??0invalid_argument@std@@QEAA@AEBV01@@Z
	??0invalid_argument@std@@QEAA@PEBD@Z
	??0lock_error@mwboost@@QEAA@AEBV01@@Z
	??0lock_error@mwboost@@QEAA@HPEBD@Z
	??0logic_error@std@@QEAA@AEBV01@@Z
	??0runtime_error@std@@QEAA@AEBV01@@Z
	??0runtime_error@std@@QEAA@AEBV?$basic_string@DU?$char_traits@D@std@@V?$allocator@D@2@@1@@Z
	??0shared_count@detail@mwboost@@QEAA@AEBV012@@Z
	??0system_error@system@mwboost@@QEAA@AEBV012@@Z
	??0thread_exception@mwboost@@QEAA@AEBV01@@Z
	??0thread_exception@mwboost@@QEAA@HPEBD@Z
	??0thread_resource_error@mwboost@@QEAA@AEBV01@@Z
	??0thread_resource_error@mwboost@@QEAA@XZ
	??1?$ArrayElementTypedRef@VArray@data@matlab@@$00@data@matlab@@QEAA@XZ
	??1?$ArrayElementTypedRef@VArray@data@matlab@@$0A@@data@matlab@@QEAA@XZ
	??1?$ArrayElementTypedRef@VStruct@data@matlab@@$00@data@matlab@@QEAA@XZ
	??1?$ArrayElementTypedRef@VStruct@data@matlab@@$0A@@data@matlab@@QEAA@XZ
	??1?$ArrayException@VException@matlab@@$00@detail@data@matlab@@UEAA@XZ
	??1?$ArrayException@VException@matlab@@$01@detail@data@matlab@@UEAA@XZ
	??1?$ArrayException@VException@matlab@@$02@detail@data@matlab@@UEAA@XZ
	??1?$ArrayException@VException@matlab@@$04@detail@data@matlab@@UEAA@XZ
	??1?$ArrayException@VException@matlab@@$05@detail@data@matlab@@UEAA@XZ
	??1?$ArrayException@VException@matlab@@$06@detail@data@matlab@@UEAA@XZ
	??1?$ArrayException@VException@matlab@@$07@detail@data@matlab@@UEAA@XZ
	??1?$ArrayException@VException@matlab@@$08@detail@data@matlab@@UEAA@XZ
	??1?$ArrayException@VException@matlab@@$09@detail@data@matlab@@UEAA@XZ
	??1?$ArrayException@VException@matlab@@$0BA@@detail@data@matlab@@UEAA@XZ
	??1?$ArrayException@VException@matlab@@$0BB@@detail@data@matlab@@UEAA@XZ
	??1?$ArrayException@VException@matlab@@$0BC@@detail@data@matlab@@UEAA@XZ
	??1?$ArrayException@VException@matlab@@$0BD@@detail@data@matlab@@UEAA@XZ
	??1?$ArrayException@VException@matlab@@$0BE@@detail@data@matlab@@UEAA@XZ
	??1?$ArrayException@VException@matlab@@$0BF@@detail@data@matlab@@UEAA@XZ
	??1?$ArrayException@VException@matlab@@$0BG@@detail@data@matlab@@UEAA@XZ
	??1?$ArrayException@VException@matlab@@$0BH@@detail@data@matlab@@UEAA@XZ
	??1?$ArrayException@VException@matlab@@$0BI@@detail@data@matlab@@UEAA@XZ
	??1?$ArrayException@VException@matlab@@$0BJ@@detail@data@matlab@@UEAA@XZ
	??1?$ArrayException@VException@matlab@@$0BK@@detail@data@matlab@@UEAA@XZ
	??1?$ArrayException@VException@matlab@@$0BL@@detail@data@matlab@@UEAA@XZ
	??1?$ArrayException@VException@matlab@@$0BM@@detail@data@matlab@@UEAA@XZ
	??1?$ArrayException@VException@matlab@@$0BN@@detail@data@matlab@@UEAA@XZ
	??1?$ArrayException@VException@matlab@@$0BO@@detail@data@matlab@@UEAA@XZ
	??1?$ArrayException@VException@matlab@@$0BP@@detail@data@matlab@@UEAA@XZ
	??1?$ArrayException@VException@matlab@@$0CA@@detail@data@matlab@@UEAA@XZ
	??1?$ArrayException@VException@matlab@@$0CB@@detail@data@matlab@@UEAA@XZ
	??1?$ArrayException@VException@matlab@@$0CC@@detail@data@matlab@@UEAA@XZ
	??1?$ArrayException@VException@matlab@@$0CD@@detail@data@matlab@@UEAA@XZ
	??1?$ArrayException@VException@matlab@@$0CE@@detail@data@matlab@@UEAA@XZ
	??1?$ArrayException@VException@matlab@@$0CF@@detail@data@matlab@@UEAA@XZ
	??1?$ArrayException@VException@matlab@@$0CG@@detail@data@matlab@@UEAA@XZ
	??1?$ArrayException@VException@matlab@@$0CH@@detail@data@matlab@@UEAA@XZ
	??1?$ArrayException@VException@matlab@@$0CI@@detail@data@matlab@@UEAA@XZ
	??1?$ArrayException@VException@matlab@@$0CJ@@detail@data@matlab@@UEAA@XZ
	??1?$ArrayException@VException@matlab@@$0CK@@detail@data@matlab@@UEAA@XZ
	??1?$ArrayException@VException@matlab@@$0CL@@detail@data@matlab@@UEAA@XZ
	??1?$ArrayException@VException@matlab@@$0CM@@detail@data@matlab@@UEAA@XZ
	??1?$ArrayException@VException@matlab@@$0CN@@detail@data@matlab@@UEAA@XZ
	??1?$ArrayException@VException@matlab@@$0CO@@detail@data@matlab@@UEAA@XZ
	??1?$ArrayException@VException@matlab@@$0CP@@detail@data@matlab@@UEAA@XZ
	??1?$ArrayException@VException@matlab@@$0DD@@detail@data@matlab@@UEAA@XZ
	??1?$ArrayException@VException@matlab@@$0L@@detail@data@matlab@@UEAA@XZ
	??1?$ArrayException@VException@matlab@@$0M@@detail@data@matlab@@UEAA@XZ
	??1?$ArrayException@VException@matlab@@$0N@@detail@data@matlab@@UEAA@XZ
	??1?$ArrayException@VException@matlab@@$0O@@detail@data@matlab@@UEAA@XZ
	??1?$ArrayException@VException@matlab@@$0P@@detail@data@matlab@@UEAA@XZ
	??1?$Header_@V?$allocator@X@std@@@std_msgs@@QEAA@XZ
	??1?$MATLABROSMsgInterface@U?$msg_cm_@V?$allocator@X@std@@@cm@@@@UEAA@XZ
	??1?$MessageEvent@$$CBU?$msg_cm_@V?$allocator@X@std@@@cm@@@ros@@QEAA@XZ
	??1?$OrderedIterator@NVColumnMajorOrder@detail@data@matlab@@@detail@data@matlab@@QEAA@XZ
	??1?$OrderedIterator@NVRowMajorOrder@detail@data@matlab@@@detail@data@matlab@@QEAA@XZ
	??1?$PreDeserializeParams@U?$msg_cm_@V?$allocator@X@std@@@cm@@@serialization@ros@@QEAA@XZ
	??1?$ROSPublisherImpl@U?$msg_cm_@V?$allocator@X@std@@@cm@@Vcm_msg_msg_cm_common@@@@UEAA@XZ
	??1?$ROSSubscriberImpl@U?$msg_cm_@V?$allocator@X@std@@@cm@@V?$shared_ptr@$$CBU?$msg_cm_@V?$allocator@X@std@@@cm@@@mwboost@@Vcm_msg_msg_cm_common@@@@UEAA@XZ
	??1?$TypedArray@N@data@matlab@@UEAA@XZ
	??1?$TypedArray@VArray@data@matlab@@@data@matlab@@UEAA@XZ
	??1?$TypedArray@VStruct@data@matlab@@@data@matlab@@UEAA@XZ
	??1?$TypedArray@_S@data@matlab@@UEAA@XZ
	??1?$TypedIterator@$$CBN@data@matlab@@QEAA@XZ
	??1?$TypedIterator@N@data@matlab@@QEAA@XZ
	??1?$_Alloc_construct_ptr@V?$allocator@U?$_Tree_node@U?$pair@$$CBII@std@@PEAX@std@@@std@@@std@@QEAA@XZ
	??1?$_Alloc_construct_ptr@V?$allocator@U?$_Tree_node@U?$pair@$$CBIPEAUConnectionInfo@rosbag@@@std@@PEAX@std@@@std@@@std@@QEAA@XZ
	??1?$_Alloc_construct_ptr@V?$allocator@U?$_Tree_node@U?$pair@$$CBIV?$multiset@UIndexEntry@rosbag@@U?$less@UIndexEntry@rosbag@@@std@@V?$allocator@UIndexEntry@rosbag@@@4@@std@@@std@@PEAX@std@@@std@@@std@@QEAA@XZ
	??1?$_Alloc_construct_ptr@V?$allocator@U?$_Tree_node@U?$pair@$$CBV?$basic_string@DU?$char_traits@D@std@@V?$allocator@D@2@@std@@I@std@@PEAX@std@@@std@@@std@@QEAA@XZ
	??1?$_Alloc_construct_ptr@V?$allocator@U?$_Tree_node@U?$pair@$$CBV?$basic_string@DU?$char_traits@D@std@@V?$allocator@D@2@@std@@PEAVAbstractMetaObjectBase@impl@ros1_class_loader@@@std@@PEAX@std@@@std@@@std@@QEAA@XZ
	??1?$_Alloc_construct_ptr@V?$allocator@U?$_Tree_node@U?$pair@$$CBV?$basic_string@DU?$char_traits@D@std@@V?$allocator@D@2@@std@@V12@@std@@PEAX@std@@@std@@@std@@QEAA@XZ
	??1?$_Alloc_construct_ptr@V?$allocator@U?$_Tree_node@U?$pair@$$CBV?$basic_string@DU?$char_traits@D@std@@V?$allocator@D@2@@std@@V?$shared_ptr@VMATLABROSMsgInterfaceBase@@@mwboost@@@std@@PEAX@std@@@std@@@std@@QEAA@XZ
	??1?$_Alloc_construct_ptr@V?$allocator@U?$_Tree_node@U?$pair@$$CBV?$map@V?$basic_string@DU?$char_traits@D@std@@V?$allocator@D@2@@std@@V12@U?$less@V?$basic_string@DU?$char_traits@D@std@@V?$allocator@D@2@@std@@@2@V?$allocator@U?$pair@$$CBV?$basic_string@DU?$char_traits@D@std@@V?$allocator@D@2@@std@@V12@@std@@@2@@std@@I@std@@PEAX@std@@@std@@@std@@QEAA@XZ
	??1?$_Alloc_construct_ptr@V?$allocator@U?$_Tree_node@UIndexEntry@rosbag@@PEAX@std@@@std@@@std@@QEAA@XZ
	??1?$_Compressed_pair@V?$allocator@D@std@@V?$_String_val@U?$_Simple_types@D@std@@@2@$00@std@@QEAA@XZ
	??1?$_Temporary_owner_del@PEAVArrayFactoryImpl@impl@data@matlab@@V<lambda_a4c5f97d4391fb4c09103a727c16defd>@@@std@@QEAA@XZ
	??1?$_Temporary_owner_del@PEAVArrayImpl@impl@data@matlab@@V<lambda_18bde30140702ba20a566c9dc393b8c0>@@@std@@QEAA@XZ
	??1?$_Temporary_owner_del@PEAVArrayImpl@impl@data@matlab@@V<lambda_49bc69670bef5877f460780ec06c4b58>@@@std@@QEAA@XZ
	??1?$_Temporary_owner_del@PEAVArrayImpl@impl@data@matlab@@V<lambda_7221354e2161a523b28f93cf96116df6>@@@std@@QEAA@XZ
	??1?$_Temporary_owner_del@PEAVArrayImpl@impl@data@matlab@@V<lambda_8717c4bee2934487c85bc1f9f4a10ac1>@@@std@@QEAA@XZ
	??1?$_Temporary_owner_del@PEAVArrayImpl@impl@data@matlab@@V<lambda_e914d30eff449a87d58ddc0a6ee00afb>@@@std@@QEAA@XZ
	??1?$_Temporary_owner_del@PEAVIteratorImpl@detail@data@matlab@@V<lambda_2338e59a205dcd23a85a74566c35c54c>@@@std@@QEAA@XZ
	??1?$_Temporary_owner_del@PEAVIteratorImpl@detail@data@matlab@@V<lambda_5f4fcb290926e6b66c490376dc93f8ff>@@@std@@QEAA@XZ
	??1?$_Temporary_owner_del@PEAVIteratorImpl@detail@data@matlab@@V<lambda_7b2e123050acc360989b02063f1710cc>@@@std@@QEAA@XZ
	??1?$_Temporary_owner_del@PEAVIteratorImpl@detail@data@matlab@@V<lambda_f604b6d186b888d49827c9591affdc3a>@@@std@@QEAA@XZ
	??1?$_Temporary_owner_del@PEAVNameListImpl@detail@data@matlab@@V<lambda_9f3a4d0362104a3bede0405fafec76e1>@@@std@@QEAA@XZ
	??1?$_Temporary_owner_del@PEAVReferenceImpl@detail@data@matlab@@V<lambda_2615407b98e1f3a14023b76f0dedc381>@@@std@@QEAA@XZ
	??1?$_Tidy_guard@V?$vector@NV?$allocator@N@std@@@std@@@std@@QEAA@XZ
	??1?$_Tidy_guard@V?$vector@U?$pair@W4FunctionType@detail@data@matlab@@V?$basic_string@DU?$char_traits@D@std@@V?$allocator@D@2@@std@@@std@@V?$allocator@U?$pair@W4FunctionType@detail@data@matlab@@V?$basic_string@DU?$char_traits@D@std@@V?$allocator@D@2@@std@@@std@@@2@@std@@@std@@QEAA@XZ
	??1?$_Tidy_guard@V?$vector@V?$basic_string@DU?$char_traits@D@std@@V?$allocator@D@2@@std@@V?$allocator@V?$basic_string@DU?$char_traits@D@std@@V?$allocator@D@2@@std@@@2@@std@@@std@@QEAA@XZ
	??1?$_Tidy_guard@V?$vector@VArray@data@matlab@@V?$allocator@VArray@data@matlab@@@std@@@std@@@std@@QEAA@XZ
	??1?$_Tidy_guard@V?$vector@_JV?$allocator@_J@std@@@std@@@std@@QEAA@XZ
	??1?$_Tidy_guard@V?$vector@_KV?$allocator@_K@std@@@std@@@std@@QEAA@XZ
	??1?$_Tree@V?$_Tmap_traits@V?$basic_string@DU?$char_traits@D@std@@V?$allocator@D@2@@std@@V12@U?$less@V?$basic_string@DU?$char_traits@D@std@@V?$allocator@D@2@@std@@@2@V?$allocator@U?$pair@$$CBV?$basic_string@DU?$char_traits@D@std@@V?$allocator@D@2@@std@@V12@@std@@@2@$0A@@std@@@std@@QEAA@XZ
	??1?$_Tree@V?$_Tset_traits@UIndexEntry@rosbag@@U?$less@UIndexEntry@rosbag@@@std@@V?$allocator@UIndexEntry@rosbag@@@4@$00@std@@@std@@QEAA@XZ
	??1?$_Tree_head_scoped_ptr@V?$allocator@U?$_Tree_node@U?$pair@$$CBV?$basic_string@DU?$char_traits@D@std@@V?$allocator@D@2@@std@@V12@@std@@PEAX@std@@@std@@V?$_Tree_val@U?$_Tree_simple_types@U?$pair@$$CBV?$basic_string@DU?$char_traits@D@std@@V?$allocator@D@2@@std@@V12@@std@@@std@@@2@@std@@QEAA@XZ
	??1?$_Tree_temp_node@V?$allocator@U?$_Tree_node@U?$pair@$$CBII@std@@PEAX@std@@@std@@@std@@QEAA@XZ
	??1?$_Tree_temp_node@V?$allocator@U?$_Tree_node@U?$pair@$$CBIPEAUConnectionInfo@rosbag@@@std@@PEAX@std@@@std@@@std@@QEAA@XZ
	??1?$_Tree_temp_node@V?$allocator@U?$_Tree_node@U?$pair@$$CBIV?$multiset@UIndexEntry@rosbag@@U?$less@UIndexEntry@rosbag@@@std@@V?$allocator@UIndexEntry@rosbag@@@4@@std@@@std@@PEAX@std@@@std@@@std@@QEAA@XZ
	??1?$_Tree_temp_node@V?$allocator@U?$_Tree_node@U?$pair@$$CBV?$basic_string@DU?$char_traits@D@std@@V?$allocator@D@2@@std@@I@std@@PEAX@std@@@std@@@std@@QEAA@XZ
	??1?$_Tree_temp_node@V?$allocator@U?$_Tree_node@U?$pair@$$CBV?$basic_string@DU?$char_traits@D@std@@V?$allocator@D@2@@std@@PEAVAbstractMetaObjectBase@impl@ros1_class_loader@@@std@@PEAX@std@@@std@@@std@@QEAA@XZ
	??1?$_Tree_temp_node@V?$allocator@U?$_Tree_node@U?$pair@$$CBV?$basic_string@DU?$char_traits@D@std@@V?$allocator@D@2@@std@@V12@@std@@PEAX@std@@@std@@@std@@QEAA@XZ
	??1?$_Tree_temp_node@V?$allocator@U?$_Tree_node@U?$pair@$$CBV?$basic_string@DU?$char_traits@D@std@@V?$allocator@D@2@@std@@V?$shared_ptr@VMATLABROSMsgInterfaceBase@@@mwboost@@@std@@PEAX@std@@@std@@@std@@QEAA@XZ
	??1?$_Tree_temp_node@V?$allocator@U?$_Tree_node@U?$pair@$$CBV?$map@V?$basic_string@DU?$char_traits@D@std@@V?$allocator@D@2@@std@@V12@U?$less@V?$basic_string@DU?$char_traits@D@std@@V?$allocator@D@2@@std@@@2@V?$allocator@U?$pair@$$CBV?$basic_string@DU?$char_traits@D@std@@V?$allocator@D@2@@std@@V12@@std@@@2@@std@@I@std@@PEAX@std@@@std@@@std@@QEAA@XZ
	??1?$_Tree_temp_node@V?$allocator@U?$_Tree_node@UIndexEntry@rosbag@@PEAX@std@@@std@@@std@@QEAA@XZ
	??1?$_Tree_temp_node_alloc@V?$allocator@U?$_Tree_node@U?$pair@$$CBIV?$multiset@UIndexEntry@rosbag@@U?$less@UIndexEntry@rosbag@@@std@@V?$allocator@UIndexEntry@rosbag@@@4@@std@@@std@@PEAX@std@@@std@@@std@@QEAA@XZ
	??1?$_Tree_temp_node_alloc@V?$allocator@U?$_Tree_node@U?$pair@$$CBV?$basic_string@DU?$char_traits@D@std@@V?$allocator@D@2@@std@@I@std@@PEAX@std@@@std@@@std@@QEAA@XZ
	??1?$_Tree_temp_node_alloc@V?$allocator@U?$_Tree_node@U?$pair@$$CBV?$basic_string@DU?$char_traits@D@std@@V?$allocator@D@2@@std@@PEAVAbstractMetaObjectBase@impl@ros1_class_loader@@@std@@PEAX@std@@@std@@@std@@QEAA@XZ
	??1?$_Tree_temp_node_alloc@V?$allocator@U?$_Tree_node@U?$pair@$$CBV?$basic_string@DU?$char_traits@D@std@@V?$allocator@D@2@@std@@V12@@std@@PEAX@std@@@std@@@std@@QEAA@XZ
	??1?$_Tree_temp_node_alloc@V?$allocator@U?$_Tree_node@U?$pair@$$CBV?$basic_string@DU?$char_traits@D@std@@V?$allocator@D@2@@std@@V?$shared_ptr@VMATLABROSMsgInterfaceBase@@@mwboost@@@std@@PEAX@std@@@std@@@std@@QEAA@XZ
	??1?$_Tree_temp_node_alloc@V?$allocator@U?$_Tree_node@U?$pair@$$CBV?$map@V?$basic_string@DU?$char_traits@D@std@@V?$allocator@D@2@@std@@V12@U?$less@V?$basic_string@DU?$char_traits@D@std@@V?$allocator@D@2@@std@@@2@V?$allocator@U?$pair@$$CBV?$basic_string@DU?$char_traits@D@std@@V?$allocator@D@2@@std@@V12@@std@@@2@@std@@I@std@@PEAX@std@@@std@@@std@@QEAA@XZ
	??1?$_Uninitialized_backout_al@V?$allocator@U?$pair@W4FunctionType@detail@data@matlab@@V?$basic_string@DU?$char_traits@D@std@@V?$allocator@D@2@@std@@@std@@@std@@@std@@QEAA@XZ
	??1?$_Uninitialized_backout_al@V?$allocator@V?$basic_string@DU?$char_traits@D@std@@V?$allocator@D@2@@std@@@std@@@std@@QEAA@XZ
	??1?$_Uninitialized_backout_al@V?$allocator@VArray@data@matlab@@@std@@@std@@QEAA@XZ
	??1?$basic_string@DU?$char_traits@D@std@@V?$allocator@D@2@@std@@QEAA@XZ
	??1?$clone_impl@Ubad_alloc_@exception_detail@mwboost@@@exception_detail@mwboost@@UEAA@XZ
	??1?$clone_impl@Ubad_exception_@exception_detail@mwboost@@@exception_detail@mwboost@@UEAA@XZ
	??1?$function0@V?$shared_ptr@U?$msg_cm_@V?$allocator@X@std@@@cm@@@mwboost@@@mwboost@@QEAA@XZ
	??1?$function1@XAEBVSingleSubscriberPublisher@ros@@@mwboost@@QEAA@XZ
	??1?$function@$$A6A?AV?$shared_ptr@U?$msg_cm_@V?$allocator@X@std@@@cm@@@mwboost@@XZ@mwboost@@QEAA@XZ
	??1?$function@$$A6A?AVSerializedMessage@ros@@XZ@mwboost@@QEAA@XZ
	??1?$function@$$A6AXAEBV?$shared_ptr@$$CBU?$msg_cm_@V?$allocator@X@std@@@cm@@@mwboost@@@Z@mwboost@@QEAA@XZ
	??1?$function@$$A6AXAEBVSingleSubscriberPublisher@ros@@@Z@mwboost@@QEAA@XZ
	??1?$function@$$A6AXV?$shared_ptr@$$CBU?$msg_cm_@V?$allocator@X@std@@@cm@@@mwboost@@@Z@mwboost@@QEAA@XZ
	??1?$map@V?$basic_string@DU?$char_traits@D@std@@V?$allocator@D@2@@std@@V12@U?$less@V?$basic_string@DU?$char_traits@D@std@@V?$allocator@D@2@@std@@@2@V?$allocator@U?$pair@$$CBV?$basic_string@DU?$char_traits@D@std@@V?$allocator@D@2@@std@@V12@@std@@@2@@std@@QEAA@XZ
	??1?$msg_cm_@V?$allocator@X@std@@@cm@@QEAA@XZ
	??1?$pair@$$CBV?$basic_string@DU?$char_traits@D@std@@V?$allocator@D@2@@std@@V?$shared_ptr@VMATLABROSMsgInterfaceBase@@@mwboost@@@std@@QEAA@XZ
	??1?$pair@W4FunctionType@detail@data@matlab@@V?$basic_string@DU?$char_traits@D@std@@V?$allocator@D@2@@std@@@std@@QEAA@XZ
	??1?$refcount_ptr@Uerror_info_container@exception_detail@mwboost@@@exception_detail@mwboost@@QEAA@XZ
	??1?$shared_ptr@$$CBU?$msg_cm_@V?$allocator@X@std@@@cm@@@mwboost@@QEAA@XZ
	??1?$shared_ptr@$$CBX@mwboost@@QEAA@XZ
	??1?$shared_ptr@U?$msg_cm_@V?$allocator@X@std@@@cm@@@mwboost@@QEAA@XZ
	??1?$shared_ptr@V?$MATLABROSMsgInterface@U?$Header_@V?$allocator@X@std@@@std_msgs@@@@@mwboost@@QEAA@XZ
	??1?$shared_ptr@V?$SubscriptionCallbackHelperT@AEBV?$shared_ptr@$$CBU?$msg_cm_@V?$allocator@X@std@@@cm@@@mwboost@@X@ros@@@mwboost@@QEAA@XZ
	??1?$shared_ptr@V?$map@V?$basic_string@DU?$char_traits@D@std@@V?$allocator@D@2@@std@@V12@U?$less@V?$basic_string@DU?$char_traits@D@std@@V?$allocator@D@2@@std@@@2@V?$allocator@U?$pair@$$CBV?$basic_string@DU?$char_traits@D@std@@V?$allocator@D@2@@std@@V12@@std@@@2@@std@@@mwboost@@QEAA@XZ
	??1?$shared_ptr@VArrayFactoryImpl@impl@data@matlab@@@std@@QEAA@XZ
	??1?$shared_ptr@VNodeHandle@ros@@@std@@QEAA@XZ
	??1?$shared_ptr@VReferenceImpl@detail@data@matlab@@@std@@QEAA@XZ
	??1?$unique_lock@Vmutex@mwboost@@@mwboost@@QEAA@XZ
	??1?$unique_lock@Vrecursive_mutex@mwboost@@@mwboost@@QEAA@XZ
	??1?$vector@NV?$allocator@N@std@@@std@@QEAA@XZ
	??1?$vector@PEAVClassLoader@ros1_class_loader@@V?$allocator@PEAVClassLoader@ros1_class_loader@@@std@@@std@@QEAA@XZ
	??1?$vector@V?$basic_string@DU?$char_traits@D@std@@V?$allocator@D@2@@std@@V?$allocator@V?$basic_string@DU?$char_traits@D@std@@V?$allocator@D@2@@std@@@2@@std@@QEAA@XZ
	??1?$vector@VArray@data@matlab@@V?$allocator@VArray@data@matlab@@@std@@@std@@QEAA@XZ
	??1?$vector@_KV?$allocator@_K@std@@@std@@QEAA@XZ
	??1?$wrapexcept@Vbad_function_call@mwboost@@@mwboost@@UEAA@XZ
	??1?$wrapexcept@Vlock_error@mwboost@@@mwboost@@UEAA@XZ
	??1?$wrapexcept@Vthread_resource_error@mwboost@@@mwboost@@UEAA@XZ
	??1Array@data@matlab@@UEAA@XZ
	??1BagException@rosbag@@UEAA@XZ
	??1CharArray@data@matlab@@UEAA@XZ
	??1CreateClassException@ros1_class_loader@@UEAA@XZ
	??1Exception@matlab@@UEAA@XZ
	??1NameList@ArrayFactory@data@matlab@@QEAA@XZ
	??1Struct@data@matlab@@QEAA@XZ
	??1StructArray@data@matlab@@UEAA@XZ
	??1_Ref_count_base@std@@UEAA@XZ
	??1bad_alloc_@exception_detail@mwboost@@UEAA@XZ
	??1bad_array_new_length@std@@UEAA@XZ
	??1bad_exception_@exception_detail@mwboost@@UEAA@XZ
	??1bad_function_call@mwboost@@UEAA@XZ
	??1clone_base@exception_detail@mwboost@@UEAA@XZ
	??1cm_msg_cm_message@@UEAA@XZ
	??1cm_msg_msg_cm_common@@UEAA@XZ
	??1deleter@?$wrapexcept@Vbad_function_call@mwboost@@@mwboost@@QEAA@XZ
	??1deleter@?$wrapexcept@Vlock_error@mwboost@@@mwboost@@QEAA@XZ
	??1deleter@?$wrapexcept@Vthread_resource_error@mwboost@@@mwboost@@QEAA@XZ
	??1exception@std@@UEAA@XZ
	??1invalid_argument@std@@UEAA@XZ
	??1local_free@detail@system@mwboost@@QEAA@XZ
	??1lock_error@mwboost@@UEAA@XZ
	??1shared_count@detail@mwboost@@QEAA@XZ
	??1thread_resource_error@mwboost@@UEAA@XZ
	??4?$ArrayElementTypedRef@VArray@data@matlab@@$0A@@data@matlab@@QEAAAEAV012@VArray@12@@Z
	??4?$MATLABROSMsgInterface@U?$msg_cm_@V?$allocator@X@std@@@cm@@@@QEAAAEAV0@AEBV0@@Z
	??4?$basic_string@DU?$char_traits@D@std@@V?$allocator@D@2@@std@@QEAAAEAV01@$$QEAV01@@Z
	??4?$basic_string@DU?$char_traits@D@std@@V?$allocator@D@2@@std@@QEAAAEAV01@AEBV01@@Z
	??4?$msg_cm_@V?$allocator@X@std@@@cm@@QEAAAEAU01@AEBU01@@Z
	??4?$refcount_ptr@Uerror_info_container@exception_detail@mwboost@@@exception_detail@mwboost@@QEAAAEAV012@AEBV012@@Z
	??4?$shared_ptr@$$CBU?$msg_cm_@V?$allocator@X@std@@@cm@@@mwboost@@QEAAAEAV01@AEBV01@@Z
	??4?$shared_ptr@U?$msg_cm_@V?$allocator@X@std@@@cm@@@mwboost@@QEAAAEAV01@$$QEAV01@@Z
	??4?$shared_ptr@U?$msg_cm_@V?$allocator@X@std@@@cm@@@mwboost@@QEAAAEAV01@AEBV01@@Z
	??4?$shared_ptr@V?$map@V?$basic_string@DU?$char_traits@D@std@@V?$allocator@D@2@@std@@V12@U?$less@V?$basic_string@DU?$char_traits@D@std@@V?$allocator@D@2@@std@@@2@V?$allocator@U?$pair@$$CBV?$basic_string@DU?$char_traits@D@std@@V?$allocator@D@2@@std@@V12@@std@@@2@@std@@@mwboost@@QEAAAEAV01@$$QEAV01@@Z
	??4?$shared_ptr@V?$map@V?$basic_string@DU?$char_traits@D@std@@V?$allocator@D@2@@std@@V12@U?$less@V?$basic_string@DU?$char_traits@D@std@@V?$allocator@D@2@@std@@@2@V?$allocator@U?$pair@$$CBV?$basic_string@DU?$char_traits@D@std@@V?$allocator@D@2@@std@@V12@@std@@@2@@std@@@mwboost@@QEAAAEAV01@AEBV01@@Z
	??4?$shared_ptr@VArrayFactoryImpl@impl@data@matlab@@@std@@QEAAAEAV01@$$QEAV01@@Z
	??4?$shared_ptr@VArrayImpl@impl@data@matlab@@@std@@QEAAAEAV01@$$QEAV01@@Z
	??4?$shared_ptr@VIteratorImpl@detail@data@matlab@@@std@@QEAAAEAV01@$$QEAV01@@Z
	??4?$shared_ptr@VPublisher@ros@@@std@@QEAAAEAV01@$$QEAV01@@Z
	??4?$shared_ptr@VSubscriber@ros@@@std@@QEAAAEAV01@$$QEAV01@@Z
	??4?$vector@NV?$allocator@N@std@@@std@@QEAAAEAV01@AEBV01@@Z
	??4?$vector@V?$basic_string@DU?$char_traits@D@std@@V?$allocator@D@2@@std@@V?$allocator@V?$basic_string@DU?$char_traits@D@std@@V?$allocator@D@2@@std@@@2@@std@@QEAAAEAV01@AEBV01@@Z
	??4?$vector@_JV?$allocator@_J@std@@@std@@QEAAAEAV01@$$QEAV01@@Z
	??4Array@data@matlab@@QEAAAEAV012@$$QEAV012@@Z
	??4cm_msg_cm_message@@QEAAAEAV0@AEBV0@@Z
	??4cm_msg_msg_cm_common@@QEAAAEAV0@AEBV0@@Z
	??8?$ArrayIndex@VColumnMajorOrder@detail@data@matlab@@@detail@data@matlab@@QEBA_NAEBV0123@@Z
	??8?$ArrayIndex@VRowMajorOrder@detail@data@matlab@@@detail@data@matlab@@QEBA_NAEBV0123@@Z
	??8system@mwboost@@YA_NAEBVerror_condition@01@0@Z
	??A?$ArrayElementTypedRef@VStruct@data@matlab@@$0A@@data@matlab@@QEAA?AV?$ArrayElementTypedRef@VArray@data@matlab@@$0A@@12@V?$basic_string@DU?$char_traits@D@std@@V?$allocator@D@2@@std@@@Z
	??A?$TypedArray@VArray@data@matlab@@@data@matlab@@QEAA?AV?$ArrayElementTypedRef@VArray@data@matlab@@$0A@@12@_K@Z
	??A?$TypedArray@VArray@data@matlab@@@data@matlab@@QEBA?AV?$ArrayElementTypedRef@VArray@data@matlab@@$00@12@_K@Z
	??A?$TypedArray@VStruct@data@matlab@@@data@matlab@@QEAA?AV?$ArrayElementTypedRef@VStruct@data@matlab@@$0A@@12@_K@Z
	??A?$TypedArray@VStruct@data@matlab@@@data@matlab@@QEBA?AV?$ArrayElementTypedRef@VStruct@data@matlab@@$00@12@_K@Z
	??AStruct@data@matlab@@QEBA?AVArray@12@V?$basic_string@DU?$char_traits@D@std@@V?$allocator@D@2@@std@@@Z
	??B?$ArrayElementTypedRef@VStruct@data@matlab@@$00@data@matlab@@QEBA?AVStruct@12@XZ
	??C?$reverse_iterator@V?$_Vector_const_iterator@V?$_Vector_val@U?$_Simple_types@U?$pair@W4FunctionType@detail@data@matlab@@V?$basic_string@DU?$char_traits@D@std@@V?$allocator@D@2@@std@@@std@@@std@@@std@@@std@@@std@@QEBAPEBU?$pair@W4FunctionType@detail@data@matlab@@V?$basic_string@DU?$char_traits@D@std@@V?$allocator@D@2@@std@@@1@XZ
	??E?$_Tree_unchecked_const_iterator@V?$_Tree_val@U?$_Tree_simple_types@U?$pair@$$CBV?$basic_string@DU?$char_traits@D@std@@V?$allocator@D@2@@std@@PEAVAbstractMetaObjectBase@impl@ros1_class_loader@@@std@@@std@@@std@@U_Iterator_base0@2@@std@@QEAAAEAV01@XZ
	??E?$_Tree_unchecked_const_iterator@V?$_Tree_val@U?$_Tree_simple_types@U?$pair@$$CBV?$basic_string@DU?$char_traits@D@std@@V?$allocator@D@2@@std@@V12@@std@@@std@@@std@@U_Iterator_base0@2@@std@@QEAAAEAV01@XZ
	??F?$_Tree_unchecked_const_iterator@V?$_Tree_val@U?$_Tree_simple_types@UIndexEntry@rosbag@@@std@@@std@@U_Iterator_base0@2@@std@@QEAAAEAV01@XZ
	??R<lambda_18bde30140702ba20a566c9dc393b8c0>@@QEBA@PEAVArrayImpl@impl@data@matlab@@@Z
	??R<lambda_2338e59a205dcd23a85a74566c35c54c>@@QEBA@PEAVIteratorImpl@detail@data@matlab@@@Z
	??R<lambda_2615407b98e1f3a14023b76f0dedc381>@@QEBA@PEAVReferenceImpl@detail@data@matlab@@@Z
	??R<lambda_49bc69670bef5877f460780ec06c4b58>@@QEBA@PEAVArrayImpl@impl@data@matlab@@@Z
	??R<lambda_5f4fcb290926e6b66c490376dc93f8ff>@@QEBA@PEAVIteratorImpl@detail@data@matlab@@@Z
	??R<lambda_7221354e2161a523b28f93cf96116df6>@@QEBA@PEAVArrayImpl@impl@data@matlab@@@Z
	??R<lambda_7b2e123050acc360989b02063f1710cc>@@QEBA@PEAVIteratorImpl@detail@data@matlab@@@Z
	??R<lambda_8717c4bee2934487c85bc1f9f4a10ac1>@@QEBA@PEAVArrayImpl@impl@data@matlab@@@Z
	??R<lambda_9f3a4d0362104a3bede0405fafec76e1>@@QEBA@PEAVNameListImpl@detail@data@matlab@@@Z
	??R<lambda_a4c5f97d4391fb4c09103a727c16defd>@@QEBA@PEAVArrayFactoryImpl@impl@data@matlab@@@Z
	??R<lambda_e914d30eff449a87d58ddc0a6ee00afb>@@QEBA@PEAVArrayImpl@impl@data@matlab@@@Z
	??R<lambda_f604b6d186b888d49827c9591affdc3a>@@QEBA@PEAVIteratorImpl@detail@data@matlab@@@Z
	??R?$bind_t@VSerializedMessage@ros@@P6A?AV12@AEBU?$msg_cm_@V?$allocator@X@std@@@cm@@@ZV?$list1@V?$reference_wrapper@U?$msg_cm_@V?$allocator@X@std@@@cm@@@mwboost@@@_bi@mwboost@@@_bi@mwboost@@QEAA?AVSerializedMessage@ros@@XZ
	??R?$checked_array_deleter@E@mwboost@@QEBAXPEAE@Z
	??R?$function0@V?$shared_ptr@U?$msg_cm_@V?$allocator@X@std@@@cm@@@mwboost@@@mwboost@@QEBA?AV?$shared_ptr@U?$msg_cm_@V?$allocator@X@std@@@cm@@@1@XZ
	??R?$function1@XAEBV?$shared_ptr@$$CBU?$msg_cm_@V?$allocator@X@std@@@cm@@@mwboost@@@mwboost@@QEBAXAEBV?$shared_ptr@$$CBU?$msg_cm_@V?$allocator@X@std@@@cm@@@1@@Z
	??R?$function1@XV?$shared_ptr@$$CBU?$msg_cm_@V?$allocator@X@std@@@cm@@@mwboost@@@mwboost@@QEBAXV?$shared_ptr@$$CBU?$msg_cm_@V?$allocator@X@std@@@cm@@@1@@Z
	??_7?$AbstractMetaObject@V?$MATLABROSMsgInterface@U?$msg_cm_@V?$allocator@X@std@@@cm@@@@@impl@ros1_class_loader@@6B@
	??_7?$AbstractMetaObject@VROSMsgElementInterfaceFactory@@@impl@ros1_class_loader@@6B@
	??_7?$ArrayException@VException@matlab@@$00@detail@data@matlab@@6BException@3@@
	??_7?$ArrayException@VException@matlab@@$00@detail@data@matlab@@6Bexception@std@@@
	??_7?$ArrayException@VException@matlab@@$01@detail@data@matlab@@6BException@3@@
	??_7?$ArrayException@VException@matlab@@$01@detail@data@matlab@@6Bexception@std@@@
	??_7?$ArrayException@VException@matlab@@$02@detail@data@matlab@@6BException@3@@
	??_7?$ArrayException@VException@matlab@@$02@detail@data@matlab@@6Bexception@std@@@
	??_7?$ArrayException@VException@matlab@@$04@detail@data@matlab@@6BException@3@@
	??_7?$ArrayException@VException@matlab@@$04@detail@data@matlab@@6Bexception@std@@@
	??_7?$ArrayException@VException@matlab@@$05@detail@data@matlab@@6BException@3@@
	??_7?$ArrayException@VException@matlab@@$05@detail@data@matlab@@6Bexception@std@@@
	??_7?$ArrayException@VException@matlab@@$06@detail@data@matlab@@6BException@3@@
	??_7?$ArrayException@VException@matlab@@$06@detail@data@matlab@@6Bexception@std@@@
	??_7?$ArrayException@VException@matlab@@$07@detail@data@matlab@@6BException@3@@
	??_7?$ArrayException@VException@matlab@@$07@detail@data@matlab@@6Bexception@std@@@
	??_7?$ArrayException@VException@matlab@@$08@detail@data@matlab@@6BException@3@@
	??_7?$ArrayException@VException@matlab@@$08@detail@data@matlab@@6Bexception@std@@@
	??_7?$ArrayException@VException@matlab@@$09@detail@data@matlab@@6BException@3@@
	??_7?$ArrayException@VException@matlab@@$09@detail@data@matlab@@6Bexception@std@@@
	??_7?$ArrayException@VException@matlab@@$0BA@@detail@data@matlab@@6BException@3@@
	??_7?$ArrayException@VException@matlab@@$0BA@@detail@data@matlab@@6Bexception@std@@@
	??_7?$ArrayException@VException@matlab@@$0BB@@detail@data@matlab@@6BException@3@@
	??_7?$ArrayException@VException@matlab@@$0BB@@detail@data@matlab@@6Bexception@std@@@
	??_7?$ArrayException@VException@matlab@@$0BC@@detail@data@matlab@@6BException@3@@
	??_7?$ArrayException@VException@matlab@@$0BC@@detail@data@matlab@@6Bexception@std@@@
	??_7?$ArrayException@VException@matlab@@$0BD@@detail@data@matlab@@6BException@3@@
	??_7?$ArrayException@VException@matlab@@$0BD@@detail@data@matlab@@6Bexception@std@@@
	??_7?$ArrayException@VException@matlab@@$0BE@@detail@data@matlab@@6BException@3@@
	??_7?$ArrayException@VException@matlab@@$0BE@@detail@data@matlab@@6Bexception@std@@@
	??_7?$ArrayException@VException@matlab@@$0BF@@detail@data@matlab@@6BException@3@@
	??_7?$ArrayException@VException@matlab@@$0BF@@detail@data@matlab@@6Bexception@std@@@
	??_7?$ArrayException@VException@matlab@@$0BG@@detail@data@matlab@@6BException@3@@
	??_7?$ArrayException@VException@matlab@@$0BG@@detail@data@matlab@@6Bexception@std@@@
	??_7?$ArrayException@VException@matlab@@$0BH@@detail@data@matlab@@6BException@3@@
	??_7?$ArrayException@VException@matlab@@$0BH@@detail@data@matlab@@6Bexception@std@@@
	??_7?$ArrayException@VException@matlab@@$0BI@@detail@data@matlab@@6BException@3@@
	??_7?$ArrayException@VException@matlab@@$0BI@@detail@data@matlab@@6Bexception@std@@@
	??_7?$ArrayException@VException@matlab@@$0BJ@@detail@data@matlab@@6BException@3@@
	??_7?$ArrayException@VException@matlab@@$0BJ@@detail@data@matlab@@6Bexception@std@@@
	??_7?$ArrayException@VException@matlab@@$0BK@@detail@data@matlab@@6BException@3@@
	??_7?$ArrayException@VException@matlab@@$0BK@@detail@data@matlab@@6Bexception@std@@@
	??_7?$ArrayException@VException@matlab@@$0BL@@detail@data@matlab@@6BException@3@@
	??_7?$ArrayException@VException@matlab@@$0BL@@detail@data@matlab@@6Bexception@std@@@
	??_7?$ArrayException@VException@matlab@@$0BM@@detail@data@matlab@@6BException@3@@
	??_7?$ArrayException@VException@matlab@@$0BM@@detail@data@matlab@@6Bexception@std@@@
	??_7?$ArrayException@VException@matlab@@$0BN@@detail@data@matlab@@6BException@3@@
	??_7?$ArrayException@VException@matlab@@$0BN@@detail@data@matlab@@6Bexception@std@@@
	??_7?$ArrayException@VException@matlab@@$0BO@@detail@data@matlab@@6BException@3@@
	??_7?$ArrayException@VException@matlab@@$0BO@@detail@data@matlab@@6Bexception@std@@@
	??_7?$ArrayException@VException@matlab@@$0BP@@detail@data@matlab@@6BException@3@@
	??_7?$ArrayException@VException@matlab@@$0BP@@detail@data@matlab@@6Bexception@std@@@
	??_7?$ArrayException@VException@matlab@@$0CA@@detail@data@matlab@@6BException@3@@
	??_7?$ArrayException@VException@matlab@@$0CA@@detail@data@matlab@@6Bexception@std@@@
	??_7?$ArrayException@VException@matlab@@$0CB@@detail@data@matlab@@6BException@3@@
	??_7?$ArrayException@VException@matlab@@$0CB@@detail@data@matlab@@6Bexception@std@@@
	??_7?$ArrayException@VException@matlab@@$0CC@@detail@data@matlab@@6BException@3@@
	??_7?$ArrayException@VException@matlab@@$0CC@@detail@data@matlab@@6Bexception@std@@@
	??_7?$ArrayException@VException@matlab@@$0CD@@detail@data@matlab@@6BException@3@@
	??_7?$ArrayException@VException@matlab@@$0CD@@detail@data@matlab@@6Bexception@std@@@
	??_7?$ArrayException@VException@matlab@@$0CE@@detail@data@matlab@@6BException@3@@
	??_7?$ArrayException@VException@matlab@@$0CE@@detail@data@matlab@@6Bexception@std@@@
	??_7?$ArrayException@VException@matlab@@$0CF@@detail@data@matlab@@6BException@3@@
	??_7?$ArrayException@VException@matlab@@$0CF@@detail@data@matlab@@6Bexception@std@@@
	??_7?$ArrayException@VException@matlab@@$0CG@@detail@data@matlab@@6BException@3@@
	??_7?$ArrayException@VException@matlab@@$0CG@@detail@data@matlab@@6Bexception@std@@@
	??_7?$ArrayException@VException@matlab@@$0CH@@detail@data@matlab@@6BException@3@@
	??_7?$ArrayException@VException@matlab@@$0CH@@detail@data@matlab@@6Bexception@std@@@
	??_7?$ArrayException@VException@matlab@@$0CI@@detail@data@matlab@@6BException@3@@
	??_7?$ArrayException@VException@matlab@@$0CI@@detail@data@matlab@@6Bexception@std@@@
	??_7?$ArrayException@VException@matlab@@$0CJ@@detail@data@matlab@@6BException@3@@
	??_7?$ArrayException@VException@matlab@@$0CJ@@detail@data@matlab@@6Bexception@std@@@
	??_7?$ArrayException@VException@matlab@@$0CK@@detail@data@matlab@@6BException@3@@
	??_7?$ArrayException@VException@matlab@@$0CK@@detail@data@matlab@@6Bexception@std@@@
	??_7?$ArrayException@VException@matlab@@$0CL@@detail@data@matlab@@6BException@3@@
	??_7?$ArrayException@VException@matlab@@$0CL@@detail@data@matlab@@6Bexception@std@@@
	??_7?$ArrayException@VException@matlab@@$0CM@@detail@data@matlab@@6BException@3@@
	??_7?$ArrayException@VException@matlab@@$0CM@@detail@data@matlab@@6Bexception@std@@@
	??_7?$ArrayException@VException@matlab@@$0CN@@detail@data@matlab@@6BException@3@@
	??_7?$ArrayException@VException@matlab@@$0CN@@detail@data@matlab@@6Bexception@std@@@
	??_7?$ArrayException@VException@matlab@@$0CO@@detail@data@matlab@@6BException@3@@
	??_7?$ArrayException@VException@matlab@@$0CO@@detail@data@matlab@@6Bexception@std@@@
	??_7?$ArrayException@VException@matlab@@$0CP@@detail@data@matlab@@6BException@3@@
	??_7?$ArrayException@VException@matlab@@$0CP@@detail@data@matlab@@6Bexception@std@@@
	??_7?$ArrayException@VException@matlab@@$0DD@@detail@data@matlab@@6BException@3@@
	??_7?$ArrayException@VException@matlab@@$0DD@@detail@data@matlab@@6Bexception@std@@@
	??_7?$ArrayException@VException@matlab@@$0L@@detail@data@matlab@@6BException@3@@
	??_7?$ArrayException@VException@matlab@@$0L@@detail@data@matlab@@6Bexception@std@@@
	??_7?$ArrayException@VException@matlab@@$0M@@detail@data@matlab@@6BException@3@@
	??_7?$ArrayException@VException@matlab@@$0M@@detail@data@matlab@@6Bexception@std@@@
	??_7?$ArrayException@VException@matlab@@$0N@@detail@data@matlab@@6BException@3@@
	??_7?$ArrayException@VException@matlab@@$0N@@detail@data@matlab@@6Bexception@std@@@
	??_7?$ArrayException@VException@matlab@@$0O@@detail@data@matlab@@6BException@3@@
	??_7?$ArrayException@VException@matlab@@$0O@@detail@data@matlab@@6Bexception@std@@@
	??_7?$ArrayException@VException@matlab@@$0P@@detail@data@matlab@@6BException@3@@
	??_7?$ArrayException@VException@matlab@@$0P@@detail@data@matlab@@6Bexception@std@@@
	??_7?$MATLABROSMsgInterface@U?$msg_cm_@V?$allocator@X@std@@@cm@@@@6B@
	??_7?$MetaObject@Vcm_msg_cm_message@@VROSMsgElementInterfaceFactory@@@impl@ros1_class_loader@@6B@
	??_7?$MetaObject@Vcm_msg_msg_cm_common@@V?$MATLABROSMsgInterface@U?$msg_cm_@V?$allocator@X@std@@@cm@@@@@impl@ros1_class_loader@@6B@
	??_7?$ROSBagWriterImpl@U?$msg_cm_@V?$allocator@X@std@@@cm@@Vcm_msg_msg_cm_common@@@@6B@
	??_7?$ROSPublisherImpl@U?$msg_cm_@V?$allocator@X@std@@@cm@@Vcm_msg_msg_cm_common@@@@6B@
	??_7?$ROSSubscriberImpl@U?$msg_cm_@V?$allocator@X@std@@@cm@@V?$shared_ptr@$$CBU?$msg_cm_@V?$allocator@X@std@@@cm@@@mwboost@@Vcm_msg_msg_cm_common@@@@6B@
	??_7?$SubscriptionCallbackHelperT@AEBV?$shared_ptr@$$CBU?$msg_cm_@V?$allocator@X@std@@@cm@@@mwboost@@X@ros@@6B@
	??_7?$TypedArray@N@data@matlab@@6B@
	??_7?$TypedArray@VArray@data@matlab@@@data@matlab@@6B@
	??_7?$TypedArray@VStruct@data@matlab@@@data@matlab@@6B@
	??_7?$TypedArray@_S@data@matlab@@6B@
	??_7?$_Ref_count_obj2@V?$ROSBagWriterImpl@U?$msg_cm_@V?$allocator@X@std@@@cm@@Vcm_msg_msg_cm_common@@@@@std@@6B@
	??_7?$_Ref_count_obj2@V?$ROSPublisherImpl@U?$msg_cm_@V?$allocator@X@std@@@cm@@Vcm_msg_msg_cm_common@@@@@std@@6B@
	??_7?$_Ref_count_obj2@V?$ROSSubscriberImpl@U?$msg_cm_@V?$allocator@X@std@@@cm@@V?$shared_ptr@$$CBU?$msg_cm_@V?$allocator@X@std@@@cm@@@mwboost@@Vcm_msg_msg_cm_common@@@@@std@@6B@
	??_7?$_Ref_count_obj2@VPublisher@ros@@@std@@6B@
	??_7?$_Ref_count_obj2@VSubscriber@ros@@@std@@6B@
	??_7?$_Ref_count_resource@PEAVArrayFactoryImpl@impl@data@matlab@@V<lambda_a4c5f97d4391fb4c09103a727c16defd>@@@std@@6B@
	??_7?$_Ref_count_resource@PEAVArrayImpl@impl@data@matlab@@V<lambda_18bde30140702ba20a566c9dc393b8c0>@@@std@@6B@
	??_7?$_Ref_count_resource@PEAVArrayImpl@impl@data@matlab@@V<lambda_49bc69670bef5877f460780ec06c4b58>@@@std@@6B@
	??_7?$_Ref_count_resource@PEAVArrayImpl@impl@data@matlab@@V<lambda_7221354e2161a523b28f93cf96116df6>@@@std@@6B@
	??_7?$_Ref_count_resource@PEAVArrayImpl@impl@data@matlab@@V<lambda_8717c4bee2934487c85bc1f9f4a10ac1>@@@std@@6B@
	??_7?$_Ref_count_resource@PEAVArrayImpl@impl@data@matlab@@V<lambda_e914d30eff449a87d58ddc0a6ee00afb>@@@std@@6B@
	??_7?$_Ref_count_resource@PEAVIteratorImpl@detail@data@matlab@@V<lambda_2338e59a205dcd23a85a74566c35c54c>@@@std@@6B@
	??_7?$_Ref_count_resource@PEAVIteratorImpl@detail@data@matlab@@V<lambda_5f4fcb290926e6b66c490376dc93f8ff>@@@std@@6B@
	??_7?$_Ref_count_resource@PEAVIteratorImpl@detail@data@matlab@@V<lambda_7b2e123050acc360989b02063f1710cc>@@@std@@6B@
	??_7?$_Ref_count_resource@PEAVIteratorImpl@detail@data@matlab@@V<lambda_f604b6d186b888d49827c9591affdc3a>@@@std@@6B@
	??_7?$_Ref_count_resource@PEAVNameListImpl@detail@data@matlab@@V<lambda_9f3a4d0362104a3bede0405fafec76e1>@@@std@@6B@
	??_7?$_Ref_count_resource@PEAVReferenceImpl@detail@data@matlab@@V<lambda_2615407b98e1f3a14023b76f0dedc381>@@@std@@6B@
	??_7?$clone_impl@Ubad_alloc_@exception_detail@mwboost@@@exception_detail@mwboost@@6B@
	??_7?$clone_impl@Ubad_alloc_@exception_detail@mwboost@@@exception_detail@mwboost@@6Bbad_alloc@std@@@
	??_7?$clone_impl@Ubad_alloc_@exception_detail@mwboost@@@exception_detail@mwboost@@6Bexception@2@@
	??_7?$clone_impl@Ubad_exception_@exception_detail@mwboost@@@exception_detail@mwboost@@6B@
	??_7?$clone_impl@Ubad_exception_@exception_detail@mwboost@@@exception_detail@mwboost@@6Bbad_exception@std@@@
	??_7?$clone_impl@Ubad_exception_@exception_detail@mwboost@@@exception_detail@mwboost@@6Bexception@2@@
	??_7?$sp_counted_impl_p@V?$clone_impl@Ubad_alloc_@exception_detail@mwboost@@@exception_detail@mwboost@@@detail@mwboost@@6B@
	??_7?$sp_counted_impl_p@V?$clone_impl@Ubad_exception_@exception_detail@mwboost@@@exception_detail@mwboost@@@detail@mwboost@@6B@
	??_7?$sp_counted_impl_pd@PEAEU?$checked_array_deleter@E@mwboost@@@detail@mwboost@@6B@
	??_7?$sp_counted_impl_pd@PEAU?$msg_cm_@V?$allocator@X@std@@@cm@@V?$sp_ms_deleter@U?$msg_cm_@V?$allocator@X@std@@@cm@@@detail@mwboost@@@detail@mwboost@@6B@
	??_7?$sp_counted_impl_pd@PEAV?$MATLABROSMsgInterface@U?$Header_@V?$allocator@X@std@@@std_msgs@@@@V?$bind_t@XV?$mf1@XVClassLoader@ros1_class_loader@@PEAV?$MATLABROSMsgInterface@U?$Header_@V?$allocator@X@std@@@std_msgs@@@@@_mfi@mwboost@@V?$list2@V?$value@PEAVClassLoader@ros1_class_loader@@@_bi@mwboost@@U?$arg@$00@3@@_bi@3@@_bi@mwboost@@@detail@mwboost@@6B@
	??_7?$sp_counted_impl_pd@PEAV?$SubscriptionCallbackHelperT@AEBV?$shared_ptr@$$CBU?$msg_cm_@V?$allocator@X@std@@@cm@@@mwboost@@X@ros@@V?$sp_ms_deleter@V?$SubscriptionCallbackHelperT@AEBV?$shared_ptr@$$CBU?$msg_cm_@V?$allocator@X@std@@@cm@@@mwboost@@X@ros@@@detail@mwboost@@@detail@mwboost@@6B@
	??_7?$sp_counted_impl_pd@PEAV?$map@V?$basic_string@DU?$char_traits@D@std@@V?$allocator@D@2@@std@@V12@U?$less@V?$basic_string@DU?$char_traits@D@std@@V?$allocator@D@2@@std@@@2@V?$allocator@U?$pair@$$CBV?$basic_string@DU?$char_traits@D@std@@V?$allocator@D@2@@std@@V12@@std@@@2@@std@@V?$sp_ms_deleter@V?$map@V?$basic_string@DU?$char_traits@D@std@@V?$allocator@D@2@@std@@V12@U?$less@V?$basic_string@DU?$char_traits@D@std@@V?$allocator@D@2@@std@@@2@V?$allocator@U?$pair@$$CBV?$basic_string@DU?$char_traits@D@std@@V?$allocator@D@2@@std@@V12@@std@@@2@@std@@@detail@mwboost@@@detail@mwboost@@6B@
	??_7?$wrapexcept@Vbad_function_call@mwboost@@@mwboost@@6Bbad_function_call@1@@
	??_7?$wrapexcept@Vbad_function_call@mwboost@@@mwboost@@6Bclone_base@exception_detail@1@@
	??_7?$wrapexcept@Vbad_function_call@mwboost@@@mwboost@@6Bexception@1@@
	??_7?$wrapexcept@Vlock_error@mwboost@@@mwboost@@6Bclone_base@exception_detail@1@@
	??_7?$wrapexcept@Vlock_error@mwboost@@@mwboost@@6Bexception@1@@
	??_7?$wrapexcept@Vlock_error@mwboost@@@mwboost@@6Block_error@1@@
	??_7?$wrapexcept@Vthread_resource_error@mwboost@@@mwboost@@6Bclone_base@exception_detail@1@@
	??_7?$wrapexcept@Vthread_resource_error@mwboost@@@mwboost@@6Bexception@1@@
	??_7?$wrapexcept@Vthread_resource_error@mwboost@@@mwboost@@6Bthread_resource_error@1@@
	??_7Array@data@matlab@@6B@
	??_7BagException@rosbag@@6B@
	??_7CharArray@data@matlab@@6B@
	??_7ClassLoaderException@ros1_class_loader@@6B@
	??_7CreateClassException@ros1_class_loader@@6B@
	??_7Exception@matlab@@6B@
	??_7Exception@ros@@6B@
	??_7MATLABPublisherInterface@@6B@
	??_7MATLABROSMsgInterfaceBase@@6B@
	??_7MATLABRosbagWriterInterface@@6B@
	??_7MATLABSubscriberInterface@@6B@
	??_7ROSMsgElementInterfaceFactory@@6B@
	??_7StructArray@data@matlab@@6B@
	??_7bad_alloc@std@@6B@
	??_7bad_alloc_@exception_detail@mwboost@@6Bbad_alloc@std@@@
	??_7bad_alloc_@exception_detail@mwboost@@6Bexception@2@@
	??_7bad_array_new_length@std@@6B@
	??_7bad_exception@std@@6B@
	??_7bad_exception_@exception_detail@mwboost@@6Bbad_exception@std@@@
	??_7bad_exception_@exception_detail@mwboost@@6Bexception@2@@
	??_7bad_function_call@mwboost@@6B@
	??_7clone_base@exception_detail@mwboost@@6B@
	??_7cm_msg_cm_message@@6B@
	??_7cm_msg_msg_cm_common@@6B@
	??_7exception@mwboost@@6B@
	??_7exception@std@@6B@
	??_7generic_error_category@detail@system@mwboost@@6B@
	??_7interop_error_category@detail@system@mwboost@@6B@
	??_7invalid_argument@std@@6B@
	??_7lock_error@mwboost@@6B@
	??_7logic_error@std@@6B@
	??_7runtime_error@std@@6B@
	??_7sp_counted_base@detail@mwboost@@6B@
	??_7system_error@system@mwboost@@6B@
	??_7system_error_category@detail@system@mwboost@@6B@
	??_7thread_exception@mwboost@@6B@
	??_7thread_resource_error@mwboost@@6B@
	??_D?$clone_impl@Ubad_alloc_@exception_detail@mwboost@@@exception_detail@mwboost@@QEAAXXZ
	??_D?$clone_impl@Ubad_exception_@exception_detail@mwboost@@@exception_detail@mwboost@@QEAAXXZ
	?_Adjust_manually_vector_aligned@std@@YAXAEAPEAXAEA_K@Z
	?_Alloc_sentinel_and_proxy@?$_Tree@V?$_Tmap_traits@V?$basic_string@DU?$char_traits@D@std@@V?$allocator@D@2@@std@@V12@U?$less@V?$basic_string@DU?$char_traits@D@std@@V?$allocator@D@2@@std@@@2@V?$allocator@U?$pair@$$CBV?$basic_string@DU?$char_traits@D@std@@V?$allocator@D@2@@std@@V12@@std@@@2@$0A@@std@@@std@@IEAAXXZ
	?_Alloc_sentinel_and_proxy@?$_Tree@V?$_Tset_traits@UIndexEntry@rosbag@@U?$less@UIndexEntry@rosbag@@@std@@V?$allocator@UIndexEntry@rosbag@@@4@$00@std@@@std@@IEAAXXZ
	?_Buy_nonzero@?$vector@NV?$allocator@N@std@@@std@@AEAAX_K@Z
	?_Buy_nonzero@?$vector@U?$pair@W4FunctionType@detail@data@matlab@@V?$basic_string@DU?$char_traits@D@std@@V?$allocator@D@2@@std@@@std@@V?$allocator@U?$pair@W4FunctionType@detail@data@matlab@@V?$basic_string@DU?$char_traits@D@std@@V?$allocator@D@2@@std@@@std@@@2@@std@@AEAAX_K@Z
	?_Buy_nonzero@?$vector@V?$basic_string@DU?$char_traits@D@std@@V?$allocator@D@2@@std@@V?$allocator@V?$basic_string@DU?$char_traits@D@std@@V?$allocator@D@2@@std@@@2@@std@@AEAAX_K@Z
	?_Buy_nonzero@?$vector@VArray@data@matlab@@V?$allocator@VArray@data@matlab@@@std@@@std@@AEAAX_K@Z
	?_Buy_nonzero@?$vector@_JV?$allocator@_J@std@@@std@@AEAAX_K@Z
	?_Buy_nonzero@?$vector@_KV?$allocator@_K@std@@@std@@AEAAX_K@Z
	?_Buy_raw@?$vector@NV?$allocator@N@std@@@std@@AEAAX_K@Z
	?_Buy_raw@?$vector@U?$pair@W4FunctionType@detail@data@matlab@@V?$basic_string@DU?$char_traits@D@std@@V?$allocator@D@2@@std@@@std@@V?$allocator@U?$pair@W4FunctionType@detail@data@matlab@@V?$basic_string@DU?$char_traits@D@std@@V?$allocator@D@2@@std@@@std@@@2@@std@@AEAAX_K@Z
	?_Buy_raw@?$vector@V?$basic_string@DU?$char_traits@D@std@@V?$allocator@D@2@@std@@V?$allocator@V?$basic_string@DU?$char_traits@D@std@@V?$allocator@D@2@@std@@@2@@std@@AEAAX_K@Z
	?_Buy_raw@?$vector@VArray@data@matlab@@V?$allocator@VArray@data@matlab@@@std@@@std@@AEAAX_K@Z
	?_Buy_raw@?$vector@_JV?$allocator@_J@std@@@std@@AEAAX_K@Z
	?_Buy_raw@?$vector@_KV?$allocator@_K@std@@@std@@AEAAX_K@Z
	?_Calculate_growth@?$basic_string@DU?$char_traits@D@std@@V?$allocator@D@2@@std@@CA_K_K00@Z
	?_Calculate_growth@?$vector@NV?$allocator@N@std@@@std@@AEBA_K_K@Z
	?_Calculate_growth@?$vector@V?$basic_string@DU?$char_traits@D@std@@V?$allocator@D@2@@std@@V?$allocator@V?$basic_string@DU?$char_traits@D@std@@V?$allocator@D@2@@std@@@2@@std@@AEBA_K_K@Z
	?_Change_array@?$vector@NV?$allocator@N@std@@@std@@AEAAXQEAN_K1@Z
	?_Change_array@?$vector@V?$basic_string@DU?$char_traits@D@std@@V?$allocator@D@2@@std@@V?$allocator@V?$basic_string@DU?$char_traits@D@std@@V?$allocator@D@2@@std@@@2@@std@@AEAAXQEAV?$basic_string@DU?$char_traits@D@std@@V?$allocator@D@2@@2@_K1@Z
	?_Check_grow_by_1@?$_Tree@V?$_Tmap_traits@IIU?$less@I@std@@V?$allocator@U?$pair@$$CBII@std@@@2@$0A@@std@@@std@@IEAAXXZ
	?_Check_grow_by_1@?$_Tree@V?$_Tmap_traits@IPEAUConnectionInfo@rosbag@@U?$less@I@std@@V?$allocator@U?$pair@$$CBIPEAUConnectionInfo@rosbag@@@std@@@4@$0A@@std@@@std@@IEAAXXZ
	?_Check_grow_by_1@?$_Tree@V?$_Tmap_traits@IV?$multiset@UIndexEntry@rosbag@@U?$less@UIndexEntry@rosbag@@@std@@V?$allocator@UIndexEntry@rosbag@@@4@@std@@U?$less@I@2@V?$allocator@U?$pair@$$CBIV?$multiset@UIndexEntry@rosbag@@U?$less@UIndexEntry@rosbag@@@std@@V?$allocator@UIndexEntry@rosbag@@@4@@std@@@std@@@2@$0A@@std@@@std@@IEAAXXZ
	?_Check_grow_by_1@?$_Tree@V?$_Tmap_traits@V?$basic_string@DU?$char_traits@D@std@@V?$allocator@D@2@@std@@IU?$less@V?$basic_string@DU?$char_traits@D@std@@V?$allocator@D@2@@std@@@2@V?$allocator@U?$pair@$$CBV?$basic_string@DU?$char_traits@D@std@@V?$allocator@D@2@@std@@I@std@@@2@$0A@@std@@@std@@IEAAXXZ
	?_Check_grow_by_1@?$_Tree@V?$_Tmap_traits@V?$basic_string@DU?$char_traits@D@std@@V?$allocator@D@2@@std@@PEAVAbstractMetaObjectBase@impl@ros1_class_loader@@U?$less@V?$basic_string@DU?$char_traits@D@std@@V?$allocator@D@2@@std@@@2@V?$allocator@U?$pair@$$CBV?$basic_string@DU?$char_traits@D@std@@V?$allocator@D@2@@std@@PEAVAbstractMetaObjectBase@impl@ros1_class_loader@@@std@@@2@$0A@@std@@@std@@IEAAXXZ
	?_Check_grow_by_1@?$_Tree@V?$_Tmap_traits@V?$basic_string@DU?$char_traits@D@std@@V?$allocator@D@2@@std@@V12@U?$less@V?$basic_string@DU?$char_traits@D@std@@V?$allocator@D@2@@std@@@2@V?$allocator@U?$pair@$$CBV?$basic_string@DU?$char_traits@D@std@@V?$allocator@D@2@@std@@V12@@std@@@2@$0A@@std@@@std@@IEAAXXZ
	?_Check_grow_by_1@?$_Tree@V?$_Tmap_traits@V?$basic_string@DU?$char_traits@D@std@@V?$allocator@D@2@@std@@V?$shared_ptr@VMATLABROSMsgInterfaceBase@@@mwboost@@U?$less@V?$basic_string@DU?$char_traits@D@std@@V?$allocator@D@2@@std@@@2@V?$allocator@U?$pair@$$CBV?$basic_string@DU?$char_traits@D@std@@V?$allocator@D@2@@std@@V?$shared_ptr@VMATLABROSMsgInterfaceBase@@@mwboost@@@std@@@2@$0A@@std@@@std@@IEAAXXZ
	?_Check_grow_by_1@?$_Tree@V?$_Tmap_traits@V?$map@V?$basic_string@DU?$char_traits@D@std@@V?$allocator@D@2@@std@@V12@U?$less@V?$basic_string@DU?$char_traits@D@std@@V?$allocator@D@2@@std@@@2@V?$allocator@U?$pair@$$CBV?$basic_string@DU?$char_traits@D@std@@V?$allocator@D@2@@std@@V12@@std@@@2@@std@@IU?$less@V?$map@V?$basic_string@DU?$char_traits@D@std@@V?$allocator@D@2@@std@@V12@U?$less@V?$basic_string@DU?$char_traits@D@std@@V?$allocator@D@2@@std@@@2@V?$allocator@U?$pair@$$CBV?$basic_string@DU?$char_traits@D@std@@V?$allocator@D@2@@std@@V12@@std@@@2@@std@@@2@V?$allocator@U?$pair@$$CBV?$map@V?$basic_string@DU?$char_traits@D@std@@V?$allocator@D@2@@std@@V12@U?$less@V?$basic_string@DU?$char_traits@D@std@@V?$allocator@D@2@@std@@@2@V?$allocator@U?$pair@$$CBV?$basic_string@DU?$char_traits@D@std@@V?$allocator@D@2@@std@@V12@@std@@@2@@std@@I@std@@@2@$0A@@std@@@std@@IEAAXXZ
	?_Check_grow_by_1@?$_Tree@V?$_Tset_traits@UIndexEntry@rosbag@@U?$less@UIndexEntry@rosbag@@@std@@V?$allocator@UIndexEntry@rosbag@@@4@$00@std@@@std@@IEAAXXZ
	?_Clear_and_reserve_geometric@?$vector@NV?$allocator@N@std@@@std@@AEAAX_K@Z
	?_Clear_and_reserve_geometric@?$vector@V?$basic_string@DU?$char_traits@D@std@@V?$allocator@D@2@@std@@V?$allocator@V?$basic_string@DU?$char_traits@D@std@@V?$allocator@D@2@@std@@@2@@std@@AEAAX_K@Z
	?_Construct_empty@?$basic_string@DU?$char_traits@D@std@@V?$allocator@D@2@@std@@AEAAXXZ
	?_Decref@_Ref_count_base@std@@QEAAXXZ
	?_Delete_this@?$_Ref_count_obj2@V?$ROSBagWriterImpl@U?$msg_cm_@V?$allocator@X@std@@@cm@@Vcm_msg_msg_cm_common@@@@@std@@EEAAXXZ
	?_Delete_this@?$_Ref_count_obj2@V?$ROSPublisherImpl@U?$msg_cm_@V?$allocator@X@std@@@cm@@Vcm_msg_msg_cm_common@@@@@std@@EEAAXXZ
	?_Delete_this@?$_Ref_count_obj2@V?$ROSSubscriberImpl@U?$msg_cm_@V?$allocator@X@std@@@cm@@V?$shared_ptr@$$CBU?$msg_cm_@V?$allocator@X@std@@@cm@@@mwboost@@Vcm_msg_msg_cm_common@@@@@std@@EEAAXXZ
	?_Delete_this@?$_Ref_count_obj2@VPublisher@ros@@@std@@EEAAXXZ
	?_Delete_this@?$_Ref_count_obj2@VSubscriber@ros@@@std@@EEAAXXZ
	?_Delete_this@?$_Ref_count_resource@PEAVArrayFactoryImpl@impl@data@matlab@@V<lambda_a4c5f97d4391fb4c09103a727c16defd>@@@std@@EEAAXXZ
	?_Delete_this@?$_Ref_count_resource@PEAVArrayImpl@impl@data@matlab@@V<lambda_18bde30140702ba20a566c9dc393b8c0>@@@std@@EEAAXXZ
	?_Delete_this@?$_Ref_count_resource@PEAVArrayImpl@impl@data@matlab@@V<lambda_49bc69670bef5877f460780ec06c4b58>@@@std@@EEAAXXZ
	?_Delete_this@?$_Ref_count_resource@PEAVArrayImpl@impl@data@matlab@@V<lambda_7221354e2161a523b28f93cf96116df6>@@@std@@EEAAXXZ
	?_Delete_this@?$_Ref_count_resource@PEAVArrayImpl@impl@data@matlab@@V<lambda_8717c4bee2934487c85bc1f9f4a10ac1>@@@std@@EEAAXXZ
	?_Delete_this@?$_Ref_count_resource@PEAVArrayImpl@impl@data@matlab@@V<lambda_e914d30eff449a87d58ddc0a6ee00afb>@@@std@@EEAAXXZ
	?_Delete_this@?$_Ref_count_resource@PEAVIteratorImpl@detail@data@matlab@@V<lambda_2338e59a205dcd23a85a74566c35c54c>@@@std@@EEAAXXZ
	?_Delete_this@?$_Ref_count_resource@PEAVIteratorImpl@detail@data@matlab@@V<lambda_5f4fcb290926e6b66c490376dc93f8ff>@@@std@@EEAAXXZ
	?_Delete_this@?$_Ref_count_resource@PEAVIteratorImpl@detail@data@matlab@@V<lambda_7b2e123050acc360989b02063f1710cc>@@@std@@EEAAXXZ
	?_Delete_this@?$_Ref_count_resource@PEAVIteratorImpl@detail@data@matlab@@V<lambda_f604b6d186b888d49827c9591affdc3a>@@@std@@EEAAXXZ
	?_Delete_this@?$_Ref_count_resource@PEAVNameListImpl@detail@data@matlab@@V<lambda_9f3a4d0362104a3bede0405fafec76e1>@@@std@@EEAAXXZ
	?_Delete_this@?$_Ref_count_resource@PEAVReferenceImpl@detail@data@matlab@@V<lambda_2615407b98e1f3a14023b76f0dedc381>@@@std@@EEAAXXZ
	?_Destroy@?$_Ref_count_obj2@V?$ROSBagWriterImpl@U?$msg_cm_@V?$allocator@X@std@@@cm@@Vcm_msg_msg_cm_common@@@@@std@@EEAAXXZ
	?_Destroy@?$_Ref_count_obj2@V?$ROSPublisherImpl@U?$msg_cm_@V?$allocator@X@std@@@cm@@Vcm_msg_msg_cm_common@@@@@std@@EEAAXXZ
	?_Destroy@?$_Ref_count_obj2@V?$ROSSubscriberImpl@U?$msg_cm_@V?$allocator@X@std@@@cm@@V?$shared_ptr@$$CBU?$msg_cm_@V?$allocator@X@std@@@cm@@@mwboost@@Vcm_msg_msg_cm_common@@@@@std@@EEAAXXZ
	?_Destroy@?$_Ref_count_obj2@VPublisher@ros@@@std@@EEAAXXZ
	?_Destroy@?$_Ref_count_obj2@VSubscriber@ros@@@std@@EEAAXXZ
	?_Destroy@?$_Ref_count_resource@PEAVArrayFactoryImpl@impl@data@matlab@@V<lambda_a4c5f97d4391fb4c09103a727c16defd>@@@std@@EEAAXXZ
	?_Destroy@?$_Ref_count_resource@PEAVArrayImpl@impl@data@matlab@@V<lambda_18bde30140702ba20a566c9dc393b8c0>@@@std@@EEAAXXZ
	?_Destroy@?$_Ref_count_resource@PEAVArrayImpl@impl@data@matlab@@V<lambda_49bc69670bef5877f460780ec06c4b58>@@@std@@EEAAXXZ
	?_Destroy@?$_Ref_count_resource@PEAVArrayImpl@impl@data@matlab@@V<lambda_7221354e2161a523b28f93cf96116df6>@@@std@@EEAAXXZ
	?_Destroy@?$_Ref_count_resource@PEAVArrayImpl@impl@data@matlab@@V<lambda_8717c4bee2934487c85bc1f9f4a10ac1>@@@std@@EEAAXXZ
	?_Destroy@?$_Ref_count_resource@PEAVArrayImpl@impl@data@matlab@@V<lambda_e914d30eff449a87d58ddc0a6ee00afb>@@@std@@EEAAXXZ
	?_Destroy@?$_Ref_count_resource@PEAVIteratorImpl@detail@data@matlab@@V<lambda_2338e59a205dcd23a85a74566c35c54c>@@@std@@EEAAXXZ
	?_Destroy@?$_Ref_count_resource@PEAVIteratorImpl@detail@data@matlab@@V<lambda_5f4fcb290926e6b66c490376dc93f8ff>@@@std@@EEAAXXZ
	?_Destroy@?$_Ref_count_resource@PEAVIteratorImpl@detail@data@matlab@@V<lambda_7b2e123050acc360989b02063f1710cc>@@@std@@EEAAXXZ
	?_Destroy@?$_Ref_count_resource@PEAVIteratorImpl@detail@data@matlab@@V<lambda_f604b6d186b888d49827c9591affdc3a>@@@std@@EEAAXXZ
	?_Destroy@?$_Ref_count_resource@PEAVNameListImpl@detail@data@matlab@@V<lambda_9f3a4d0362104a3bede0405fafec76e1>@@@std@@EEAAXXZ
	?_Destroy@?$_Ref_count_resource@PEAVReferenceImpl@detail@data@matlab@@V<lambda_2615407b98e1f3a14023b76f0dedc381>@@@std@@EEAAXXZ
	?_Eos@?$basic_string@DU?$char_traits@D@std@@V?$allocator@D@2@@std@@AEAAX_K@Z
	?_Equal@?$basic_string@DU?$char_traits@D@std@@V?$allocator@D@2@@std@@QEBA_NAEBV12@@Z
	?_Equal@?$basic_string@DU?$char_traits@D@std@@V?$allocator@D@2@@std@@QEBA_NQEBD@Z
	?_Get_deleter@?$_Ref_count_resource@PEAVArrayFactoryImpl@impl@data@matlab@@V<lambda_a4c5f97d4391fb4c09103a727c16defd>@@@std@@UEBAPEAXAEBVtype_info@@@Z
	?_Get_deleter@?$_Ref_count_resource@PEAVArrayImpl@impl@data@matlab@@V<lambda_18bde30140702ba20a566c9dc393b8c0>@@@std@@UEBAPEAXAEBVtype_info@@@Z
	?_Get_deleter@?$_Ref_count_resource@PEAVArrayImpl@impl@data@matlab@@V<lambda_49bc69670bef5877f460780ec06c4b58>@@@std@@UEBAPEAXAEBVtype_info@@@Z
	?_Get_deleter@?$_Ref_count_resource@PEAVArrayImpl@impl@data@matlab@@V<lambda_7221354e2161a523b28f93cf96116df6>@@@std@@UEBAPEAXAEBVtype_info@@@Z
	?_Get_deleter@?$_Ref_count_resource@PEAVArrayImpl@impl@data@matlab@@V<lambda_8717c4bee2934487c85bc1f9f4a10ac1>@@@std@@UEBAPEAXAEBVtype_info@@@Z
	?_Get_deleter@?$_Ref_count_resource@PEAVArrayImpl@impl@data@matlab@@V<lambda_e914d30eff449a87d58ddc0a6ee00afb>@@@std@@UEBAPEAXAEBVtype_info@@@Z
	?_Get_deleter@?$_Ref_count_resource@PEAVIteratorImpl@detail@data@matlab@@V<lambda_2338e59a205dcd23a85a74566c35c54c>@@@std@@UEBAPEAXAEBVtype_info@@@Z
	?_Get_deleter@?$_Ref_count_resource@PEAVIteratorImpl@detail@data@matlab@@V<lambda_5f4fcb290926e6b66c490376dc93f8ff>@@@std@@UEBAPEAXAEBVtype_info@@@Z
	?_Get_deleter@?$_Ref_count_resource@PEAVIteratorImpl@detail@data@matlab@@V<lambda_7b2e123050acc360989b02063f1710cc>@@@std@@UEBAPEAXAEBVtype_info@@@Z
	?_Get_deleter@?$_Ref_count_resource@PEAVIteratorImpl@detail@data@matlab@@V<lambda_f604b6d186b888d49827c9591affdc3a>@@@std@@UEBAPEAXAEBVtype_info@@@Z
	?_Get_deleter@?$_Ref_count_resource@PEAVNameListImpl@detail@data@matlab@@V<lambda_9f3a4d0362104a3bede0405fafec76e1>@@@std@@UEBAPEAXAEBVtype_info@@@Z
	?_Get_deleter@?$_Ref_count_resource@PEAVReferenceImpl@detail@data@matlab@@V<lambda_2615407b98e1f3a14023b76f0dedc381>@@@std@@UEBAPEAXAEBVtype_info@@@Z
	?_Get_deleter@_Ref_count_base@std@@UEBAPEAXAEBVtype_info@@@Z
	?_Getal@?$_Tree@V?$_Tmap_traits@V?$basic_string@DU?$char_traits@D@std@@V?$allocator@D@2@@std@@V12@U?$less@V?$basic_string@DU?$char_traits@D@std@@V?$allocator@D@2@@std@@@2@V?$allocator@U?$pair@$$CBV?$basic_string@DU?$char_traits@D@std@@V?$allocator@D@2@@std@@V12@@std@@@2@$0A@@std@@@std@@IEAAAEAV?$allocator@U?$_Tree_node@U?$pair@$$CBV?$basic_string@DU?$char_traits@D@std@@V?$allocator@D@2@@std@@V12@@std@@PEAX@std@@@2@XZ
	?_Insert_node@?$_Tree_val@U?$_Tree_simple_types@U?$pair@$$CBII@std@@@std@@@std@@QEAAPEAU?$_Tree_node@U?$pair@$$CBII@std@@PEAX@2@U?$_Tree_id@PEAU?$_Tree_node@U?$pair@$$CBII@std@@PEAX@std@@@2@QEAU32@@Z
	?_Insert_node@?$_Tree_val@U?$_Tree_simple_types@U?$pair@$$CBIPEAUConnectionInfo@rosbag@@@std@@@std@@@std@@QEAAPEAU?$_Tree_node@U?$pair@$$CBIPEAUConnectionInfo@rosbag@@@std@@PEAX@2@U?$_Tree_id@PEAU?$_Tree_node@U?$pair@$$CBIPEAUConnectionInfo@rosbag@@@std@@PEAX@std@@@2@QEAU32@@Z
	?_Insert_node@?$_Tree_val@U?$_Tree_simple_types@U?$pair@$$CBIV?$multiset@UIndexEntry@rosbag@@U?$less@UIndexEntry@rosbag@@@std@@V?$allocator@UIndexEntry@rosbag@@@4@@std@@@std@@@std@@@std@@QEAAPEAU?$_Tree_node@U?$pair@$$CBIV?$multiset@UIndexEntry@rosbag@@U?$less@UIndexEntry@rosbag@@@std@@V?$allocator@UIndexEntry@rosbag@@@4@@std@@@std@@PEAX@2@U?$_Tree_id@PEAU?$_Tree_node@U?$pair@$$CBIV?$multiset@UIndexEntry@rosbag@@U?$less@UIndexEntry@rosbag@@@std@@V?$allocator@UIndexEntry@rosbag@@@4@@std@@@std@@PEAX@std@@@2@QEAU32@@Z
	?_Insert_node@?$_Tree_val@U?$_Tree_simple_types@U?$pair@$$CBV?$basic_string@DU?$char_traits@D@std@@V?$allocator@D@2@@std@@I@std@@@std@@@std@@QEAAPEAU?$_Tree_node@U?$pair@$$CBV?$basic_string@DU?$char_traits@D@std@@V?$allocator@D@2@@std@@I@std@@PEAX@2@U?$_Tree_id@PEAU?$_Tree_node@U?$pair@$$CBV?$basic_string@DU?$char_traits@D@std@@V?$allocator@D@2@@std@@I@std@@PEAX@std@@@2@QEAU32@@Z
	?_Insert_node@?$_Tree_val@U?$_Tree_simple_types@U?$pair@$$CBV?$basic_string@DU?$char_traits@D@std@@V?$allocator@D@2@@std@@PEAVAbstractMetaObjectBase@impl@ros1_class_loader@@@std@@@std@@@std@@QEAAPEAU?$_Tree_node@U?$pair@$$CBV?$basic_string@DU?$char_traits@D@std@@V?$allocator@D@2@@std@@PEAVAbstractMetaObjectBase@impl@ros1_class_loader@@@std@@PEAX@2@U?$_Tree_id@PEAU?$_Tree_node@U?$pair@$$CBV?$basic_string@DU?$char_traits@D@std@@V?$allocator@D@2@@std@@PEAVAbstractMetaObjectBase@impl@ros1_class_loader@@@std@@PEAX@std@@@2@QEAU32@@Z
	?_Insert_node@?$_Tree_val@U?$_Tree_simple_types@U?$pair@$$CBV?$basic_string@DU?$char_traits@D@std@@V?$allocator@D@2@@std@@V12@@std@@@std@@@std@@QEAAPEAU?$_Tree_node@U?$pair@$$CBV?$basic_string@DU?$char_traits@D@std@@V?$allocator@D@2@@std@@V12@@std@@PEAX@2@U?$_Tree_id@PEAU?$_Tree_node@U?$pair@$$CBV?$basic_string@DU?$char_traits@D@std@@V?$allocator@D@2@@std@@V12@@std@@PEAX@std@@@2@QEAU32@@Z
	?_Insert_node@?$_Tree_val@U?$_Tree_simple_types@U?$pair@$$CBV?$basic_string@DU?$char_traits@D@std@@V?$allocator@D@2@@std@@V?$shared_ptr@VMATLABROSMsgInterfaceBase@@@mwboost@@@std@@@std@@@std@@QEAAPEAU?$_Tree_node@U?$pair@$$CBV?$basic_string@DU?$char_traits@D@std@@V?$allocator@D@2@@std@@V?$shared_ptr@VMATLABROSMsgInterfaceBase@@@mwboost@@@std@@PEAX@2@U?$_Tree_id@PEAU?$_Tree_node@U?$pair@$$CBV?$basic_string@DU?$char_traits@D@std@@V?$allocator@D@2@@std@@V?$shared_ptr@VMATLABROSMsgInterfaceBase@@@mwboost@@@std@@PEAX@std@@@2@QEAU32@@Z
	?_Insert_node@?$_Tree_val@U?$_Tree_simple_types@U?$pair@$$CBV?$map@V?$basic_string@DU?$char_traits@D@std@@V?$allocator@D@2@@std@@V12@U?$less@V?$basic_string@DU?$char_traits@D@std@@V?$allocator@D@2@@std@@@2@V?$allocator@U?$pair@$$CBV?$basic_string@DU?$char_traits@D@std@@V?$allocator@D@2@@std@@V12@@std@@@2@@std@@I@std@@@std@@@std@@QEAAPEAU?$_Tree_node@U?$pair@$$CBV?$map@V?$basic_string@DU?$char_traits@D@std@@V?$allocator@D@2@@std@@V12@U?$less@V?$basic_string@DU?$char_traits@D@std@@V?$allocator@D@2@@std@@@2@V?$allocator@U?$pair@$$CBV?$basic_string@DU?$char_traits@D@std@@V?$allocator@D@2@@std@@V12@@std@@@2@@std@@I@std@@PEAX@2@U?$_Tree_id@PEAU?$_Tree_node@U?$pair@$$CBV?$map@V?$basic_string@DU?$char_traits@D@std@@V?$allocator@D@2@@std@@V12@U?$less@V?$basic_string@DU?$char_traits@D@std@@V?$allocator@D@2@@std@@@2@V?$allocator@U?$pair@$$CBV?$basic_string@DU?$char_traits@D@std@@V?$allocator@D@2@@std@@V12@@std@@@2@@std@@I@std@@PEAX@std@@@2@QEAU32@@Z
	?_Insert_node@?$_Tree_val@U?$_Tree_simple_types@UIndexEntry@rosbag@@@std@@@std@@QEAAPEAU?$_Tree_node@UIndexEntry@rosbag@@PEAX@2@U?$_Tree_id@PEAU?$_Tree_node@UIndexEntry@rosbag@@PEAX@std@@@2@QEAU32@@Z
	?_Lrotate@?$_Tree_val@U?$_Tree_simple_types@U?$pair@$$CBII@std@@@std@@@std@@QEAAXPEAU?$_Tree_node@U?$pair@$$CBII@std@@PEAX@2@@Z
	?_Lrotate@?$_Tree_val@U?$_Tree_simple_types@U?$pair@$$CBIPEAUConnectionInfo@rosbag@@@std@@@std@@@std@@QEAAXPEAU?$_Tree_node@U?$pair@$$CBIPEAUConnectionInfo@rosbag@@@std@@PEAX@2@@Z
	?_Lrotate@?$_Tree_val@U?$_Tree_simple_types@U?$pair@$$CBIV?$multiset@UIndexEntry@rosbag@@U?$less@UIndexEntry@rosbag@@@std@@V?$allocator@UIndexEntry@rosbag@@@4@@std@@@std@@@std@@@std@@QEAAXPEAU?$_Tree_node@U?$pair@$$CBIV?$multiset@UIndexEntry@rosbag@@U?$less@UIndexEntry@rosbag@@@std@@V?$allocator@UIndexEntry@rosbag@@@4@@std@@@std@@PEAX@2@@Z
	?_Lrotate@?$_Tree_val@U?$_Tree_simple_types@U?$pair@$$CBV?$basic_string@DU?$char_traits@D@std@@V?$allocator@D@2@@std@@I@std@@@std@@@std@@QEAAXPEAU?$_Tree_node@U?$pair@$$CBV?$basic_string@DU?$char_traits@D@std@@V?$allocator@D@2@@std@@I@std@@PEAX@2@@Z
	?_Lrotate@?$_Tree_val@U?$_Tree_simple_types@U?$pair@$$CBV?$basic_string@DU?$char_traits@D@std@@V?$allocator@D@2@@std@@PEAVAbstractMetaObjectBase@impl@ros1_class_loader@@@std@@@std@@@std@@QEAAXPEAU?$_Tree_node@U?$pair@$$CBV?$basic_string@DU?$char_traits@D@std@@V?$allocator@D@2@@std@@PEAVAbstractMetaObjectBase@impl@ros1_class_loader@@@std@@PEAX@2@@Z
	?_Lrotate@?$_Tree_val@U?$_Tree_simple_types@U?$pair@$$CBV?$basic_string@DU?$char_traits@D@std@@V?$allocator@D@2@@std@@V12@@std@@@std@@@std@@QEAAXPEAU?$_Tree_node@U?$pair@$$CBV?$basic_string@DU?$char_traits@D@std@@V?$allocator@D@2@@std@@V12@@std@@PEAX@2@@Z
	?_Lrotate@?$_Tree_val@U?$_Tree_simple_types@U?$pair@$$CBV?$basic_string@DU?$char_traits@D@std@@V?$allocator@D@2@@std@@V?$shared_ptr@VMATLABROSMsgInterfaceBase@@@mwboost@@@std@@@std@@@std@@QEAAXPEAU?$_Tree_node@U?$pair@$$CBV?$basic_string@DU?$char_traits@D@std@@V?$allocator@D@2@@std@@V?$shared_ptr@VMATLABROSMsgInterfaceBase@@@mwboost@@@std@@PEAX@2@@Z
	?_Lrotate@?$_Tree_val@U?$_Tree_simple_types@U?$pair@$$CBV?$map@V?$basic_string@DU?$char_traits@D@std@@V?$allocator@D@2@@std@@V12@U?$less@V?$basic_string@DU?$char_traits@D@std@@V?$allocator@D@2@@std@@@2@V?$allocator@U?$pair@$$CBV?$basic_string@DU?$char_traits@D@std@@V?$allocator@D@2@@std@@V12@@std@@@2@@std@@I@std@@@std@@@std@@QEAAXPEAU?$_Tree_node@U?$pair@$$CBV?$map@V?$basic_string@DU?$char_traits@D@std@@V?$allocator@D@2@@std@@V12@U?$less@V?$basic_string@DU?$char_traits@D@std@@V?$allocator@D@2@@std@@@2@V?$allocator@U?$pair@$$CBV?$basic_string@DU?$char_traits@D@std@@V?$allocator@D@2@@std@@V12@@std@@@2@@std@@I@std@@PEAX@2@@Z
	?_Lrotate@?$_Tree_val@U?$_Tree_simple_types@UIndexEntry@rosbag@@@std@@@std@@QEAAXPEAU?$_Tree_node@UIndexEntry@rosbag@@PEAX@2@@Z
	?_Maklocwcs@std@@YAPEA_WPEB_W@Z
	?_Myptr@?$_String_val@U?$_Simple_types@D@std@@@std@@QEAAPEADXZ
	?_Myptr@?$_String_val@U?$_Simple_types@D@std@@@std@@QEBAPEBDXZ
	?_Orphan_range@?$vector@V?$basic_string@DU?$char_traits@D@std@@V?$allocator@D@2@@std@@V?$allocator@V?$basic_string@DU?$char_traits@D@std@@V?$allocator@D@2@@std@@@2@@std@@AEBAXPEAV?$basic_string@DU?$char_traits@D@std@@V?$allocator@D@2@@2@0@Z
	?_Rrotate@?$_Tree_val@U?$_Tree_simple_types@U?$pair@$$CBII@std@@@std@@@std@@QEAAXPEAU?$_Tree_node@U?$pair@$$CBII@std@@PEAX@2@@Z
	?_Rrotate@?$_Tree_val@U?$_Tree_simple_types@U?$pair@$$CBIPEAUConnectionInfo@rosbag@@@std@@@std@@@std@@QEAAXPEAU?$_Tree_node@U?$pair@$$CBIPEAUConnectionInfo@rosbag@@@std@@PEAX@2@@Z
	?_Rrotate@?$_Tree_val@U?$_Tree_simple_types@U?$pair@$$CBIV?$multiset@UIndexEntry@rosbag@@U?$less@UIndexEntry@rosbag@@@std@@V?$allocator@UIndexEntry@rosbag@@@4@@std@@@std@@@std@@@std@@QEAAXPEAU?$_Tree_node@U?$pair@$$CBIV?$multiset@UIndexEntry@rosbag@@U?$less@UIndexEntry@rosbag@@@std@@V?$allocator@UIndexEntry@rosbag@@@4@@std@@@std@@PEAX@2@@Z
	?_Rrotate@?$_Tree_val@U?$_Tree_simple_types@U?$pair@$$CBV?$basic_string@DU?$char_traits@D@std@@V?$allocator@D@2@@std@@I@std@@@std@@@std@@QEAAXPEAU?$_Tree_node@U?$pair@$$CBV?$basic_string@DU?$char_traits@D@std@@V?$allocator@D@2@@std@@I@std@@PEAX@2@@Z
	?_Rrotate@?$_Tree_val@U?$_Tree_simple_types@U?$pair@$$CBV?$basic_string@DU?$char_traits@D@std@@V?$allocator@D@2@@std@@PEAVAbstractMetaObjectBase@impl@ros1_class_loader@@@std@@@std@@@std@@QEAAXPEAU?$_Tree_node@U?$pair@$$CBV?$basic_string@DU?$char_traits@D@std@@V?$allocator@D@2@@std@@PEAVAbstractMetaObjectBase@impl@ros1_class_loader@@@std@@PEAX@2@@Z
	?_Rrotate@?$_Tree_val@U?$_Tree_simple_types@U?$pair@$$CBV?$basic_string@DU?$char_traits@D@std@@V?$allocator@D@2@@std@@V12@@std@@@std@@@std@@QEAAXPEAU?$_Tree_node@U?$pair@$$CBV?$basic_string@DU?$char_traits@D@std@@V?$allocator@D@2@@std@@V12@@std@@PEAX@2@@Z
	?_Rrotate@?$_Tree_val@U?$_Tree_simple_types@U?$pair@$$CBV?$basic_string@DU?$char_traits@D@std@@V?$allocator@D@2@@std@@V?$shared_ptr@VMATLABROSMsgInterfaceBase@@@mwboost@@@std@@@std@@@std@@QEAAXPEAU?$_Tree_node@U?$pair@$$CBV?$basic_string@DU?$char_traits@D@std@@V?$allocator@D@2@@std@@V?$shared_ptr@VMATLABROSMsgInterfaceBase@@@mwboost@@@std@@PEAX@2@@Z
	?_Rrotate@?$_Tree_val@U?$_Tree_simple_types@U?$pair@$$CBV?$map@V?$basic_string@DU?$char_traits@D@std@@V?$allocator@D@2@@std@@V12@U?$less@V?$basic_string@DU?$char_traits@D@std@@V?$allocator@D@2@@std@@@2@V?$allocator@U?$pair@$$CBV?$basic_string@DU?$char_traits@D@std@@V?$allocator@D@2@@std@@V12@@std@@@2@@std@@I@std@@@std@@@std@@QEAAXPEAU?$_Tree_node@U?$pair@$$CBV?$map@V?$basic_string@DU?$char_traits@D@std@@V?$allocator@D@2@@std@@V12@U?$less@V?$basic_string@DU?$char_traits@D@std@@V?$allocator@D@2@@std@@@2@V?$allocator@U?$pair@$$CBV?$basic_string@DU?$char_traits@D@std@@V?$allocator@D@2@@std@@V12@@std@@@2@@std@@I@std@@PEAX@2@@Z
	?_Rrotate@?$_Tree_val@U?$_Tree_simple_types@UIndexEntry@rosbag@@@std@@@std@@QEAAXPEAU?$_Tree_node@UIndexEntry@rosbag@@PEAX@2@@Z
	?_Swap@?$_Ptr_base@VArrayFactoryImpl@impl@data@matlab@@@std@@IEAAXAEAV12@@Z
	?_Swap@?$_Ptr_base@VArrayImpl@impl@data@matlab@@@std@@IEAAXAEAV12@@Z
	?_Swap@?$_Ptr_base@VIteratorImpl@detail@data@matlab@@@std@@IEAAXAEAV12@@Z
	?_Swap@?$_Ptr_base@VPublisher@ros@@@std@@IEAAXAEAV12@@Z
	?_Swap@?$_Ptr_base@VSubscriber@ros@@@std@@IEAAXAEAV12@@Z
	?_Take_contents@?$basic_string@DU?$char_traits@D@std@@V?$allocator@D@2@@std@@AEAAXAEAV12@@Z
	?_Throw_bad_array_new_length@std@@YAXXZ
	?_Throw_tree_length_error@std@@YAXXZ
	?_Tidy@?$vector@NV?$allocator@N@std@@@std@@AEAAXXZ
	?_Tidy@?$vector@PEAVClassLoader@ros1_class_loader@@V?$allocator@PEAVClassLoader@ros1_class_loader@@@std@@@std@@AEAAXXZ
	?_Tidy@?$vector@U?$pair@W4FunctionType@detail@data@matlab@@V?$basic_string@DU?$char_traits@D@std@@V?$allocator@D@2@@std@@@std@@V?$allocator@U?$pair@W4FunctionType@detail@data@matlab@@V?$basic_string@DU?$char_traits@D@std@@V?$allocator@D@2@@std@@@std@@@2@@std@@AEAAXXZ
	?_Tidy@?$vector@V?$basic_string@DU?$char_traits@D@std@@V?$allocator@D@2@@std@@V?$allocator@V?$basic_string@DU?$char_traits@D@std@@V?$allocator@D@2@@std@@@2@@std@@AEAAXXZ
	?_Tidy@?$vector@VArray@data@matlab@@V?$allocator@VArray@data@matlab@@@std@@@std@@AEAAXXZ
	?_Tidy@?$vector@_JV?$allocator@_J@std@@@std@@AEAAXXZ
	?_Tidy@?$vector@_KV?$allocator@_K@std@@@std@@AEAAXXZ
	?_Tidy_deallocate@?$basic_string@DU?$char_traits@D@std@@V?$allocator@D@2@@std@@AEAAXXZ
	?_Xlen_string@std@@YAXXZ
	?_Xlength@?$vector@NV?$allocator@N@std@@@std@@CAXXZ
	?_Xlength@?$vector@U?$pair@W4FunctionType@detail@data@matlab@@V?$basic_string@DU?$char_traits@D@std@@V?$allocator@D@2@@std@@@std@@V?$allocator@U?$pair@W4FunctionType@detail@data@matlab@@V?$basic_string@DU?$char_traits@D@std@@V?$allocator@D@2@@std@@@std@@@2@@std@@CAXXZ
	?_Xlength@?$vector@V?$basic_string@DU?$char_traits@D@std@@V?$allocator@D@2@@std@@V?$allocator@V?$basic_string@DU?$char_traits@D@std@@V?$allocator@D@2@@std@@@2@@std@@CAXXZ
	?_Xlength@?$vector@VArray@data@matlab@@V?$allocator@VArray@data@matlab@@@std@@@std@@CAXXZ
	?_Xlength@?$vector@_JV?$allocator@_J@std@@@std@@CAXXZ
	?_Xlength@?$vector@_KV?$allocator@_K@std@@@std@@CAXXZ
	?_internal_get_untyped_deleter@?$shared_ptr@U?$msg_cm_@V?$allocator@X@std@@@cm@@@mwboost@@QEBAPEAXXZ
	?_internal_get_untyped_deleter@?$shared_ptr@V?$SubscriptionCallbackHelperT@AEBV?$shared_ptr@$$CBU?$msg_cm_@V?$allocator@X@std@@@cm@@@mwboost@@X@ros@@@mwboost@@QEBAPEAXXZ
	?_internal_get_untyped_deleter@?$shared_ptr@V?$map@V?$basic_string@DU?$char_traits@D@std@@V?$allocator@D@2@@std@@V12@U?$less@V?$basic_string@DU?$char_traits@D@std@@V?$allocator@D@2@@std@@@2@V?$allocator@U?$pair@$$CBV?$basic_string@DU?$char_traits@D@std@@V?$allocator@D@2@@std@@V12@@std@@@2@@std@@@mwboost@@QEBAPEAXXZ
	?adopt@?$refcount_ptr@Uerror_info_container@exception_detail@mwboost@@@exception_detail@mwboost@@QEAAXPEAUerror_info_container@23@@Z
	?advance@?$ArrayIndex@VColumnMajorOrder@detail@data@matlab@@@detail@data@matlab@@QEAA_J_J@Z
	?advance@?$ArrayIndex@VRowMajorOrder@detail@data@matlab@@@detail@data@matlab@@QEAA_J_J@Z
	?allocate@?$allocator@N@std@@QEAAPEAN_K@Z
	?allocate@?$allocator@U?$_Tree_node@U?$pair@$$CBII@std@@PEAX@std@@@std@@QEAAPEAU?$_Tree_node@U?$pair@$$CBII@std@@PEAX@2@_K@Z
	?allocate@?$allocator@U?$_Tree_node@U?$pair@$$CBIPEAUConnectionInfo@rosbag@@@std@@PEAX@std@@@std@@QEAAPEAU?$_Tree_node@U?$pair@$$CBIPEAUConnectionInfo@rosbag@@@std@@PEAX@2@_K@Z
	?allocate@?$allocator@U?$_Tree_node@U?$pair@$$CBIV?$multiset@UIndexEntry@rosbag@@U?$less@UIndexEntry@rosbag@@@std@@V?$allocator@UIndexEntry@rosbag@@@4@@std@@@std@@PEAX@std@@@std@@QEAAPEAU?$_Tree_node@U?$pair@$$CBIV?$multiset@UIndexEntry@rosbag@@U?$less@UIndexEntry@rosbag@@@std@@V?$allocator@UIndexEntry@rosbag@@@4@@std@@@std@@PEAX@2@_K@Z
	?allocate@?$allocator@U?$_Tree_node@U?$pair@$$CBV?$basic_string@DU?$char_traits@D@std@@V?$allocator@D@2@@std@@I@std@@PEAX@std@@@std@@QEAAPEAU?$_Tree_node@U?$pair@$$CBV?$basic_string@DU?$char_traits@D@std@@V?$allocator@D@2@@std@@I@std@@PEAX@2@_K@Z
	?allocate@?$allocator@U?$_Tree_node@U?$pair@$$CBV?$basic_string@DU?$char_traits@D@std@@V?$allocator@D@2@@std@@PEAVAbstractMetaObjectBase@impl@ros1_class_loader@@@std@@PEAX@std@@@std@@QEAAPEAU?$_Tree_node@U?$pair@$$CBV?$basic_string@DU?$char_traits@D@std@@V?$allocator@D@2@@std@@PEAVAbstractMetaObjectBase@impl@ros1_class_loader@@@std@@PEAX@2@_K@Z
	?allocate@?$allocator@U?$_Tree_node@U?$pair@$$CBV?$basic_string@DU?$char_traits@D@std@@V?$allocator@D@2@@std@@V12@@std@@PEAX@std@@@std@@QEAAPEAU?$_Tree_node@U?$pair@$$CBV?$basic_string@DU?$char_traits@D@std@@V?$allocator@D@2@@std@@V12@@std@@PEAX@2@_K@Z
	?allocate@?$allocator@U?$_Tree_node@U?$pair@$$CBV?$basic_string@DU?$char_traits@D@std@@V?$allocator@D@2@@std@@V?$shared_ptr@VMATLABROSMsgInterfaceBase@@@mwboost@@@std@@PEAX@std@@@std@@QEAAPEAU?$_Tree_node@U?$pair@$$CBV?$basic_string@DU?$char_traits@D@std@@V?$allocator@D@2@@std@@V?$shared_ptr@VMATLABROSMsgInterfaceBase@@@mwboost@@@std@@PEAX@2@_K@Z
	?allocate@?$allocator@U?$_Tree_node@U?$pair@$$CBV?$map@V?$basic_string@DU?$char_traits@D@std@@V?$allocator@D@2@@std@@V12@U?$less@V?$basic_string@DU?$char_traits@D@std@@V?$allocator@D@2@@std@@@2@V?$allocator@U?$pair@$$CBV?$basic_string@DU?$char_traits@D@std@@V?$allocator@D@2@@std@@V12@@std@@@2@@std@@I@std@@PEAX@std@@@std@@QEAAPEAU?$_Tree_node@U?$pair@$$CBV?$map@V?$basic_string@DU?$char_traits@D@std@@V?$allocator@D@2@@std@@V12@U?$less@V?$basic_string@DU?$char_traits@D@std@@V?$allocator@D@2@@std@@@2@V?$allocator@U?$pair@$$CBV?$basic_string@DU?$char_traits@D@std@@V?$allocator@D@2@@std@@V12@@std@@@2@@std@@I@std@@PEAX@2@_K@Z
	?allocate@?$allocator@U?$_Tree_node@UIndexEntry@rosbag@@PEAX@std@@@std@@QEAAPEAU?$_Tree_node@UIndexEntry@rosbag@@PEAX@2@_K@Z
	?allocate@?$allocator@U?$pair@W4FunctionType@detail@data@matlab@@V?$basic_string@DU?$char_traits@D@std@@V?$allocator@D@2@@std@@@std@@@std@@QEAAPEAU?$pair@W4FunctionType@detail@data@matlab@@V?$basic_string@DU?$char_traits@D@std@@V?$allocator@D@2@@std@@@2@_K@Z
	?allocate@?$allocator@V?$basic_string@DU?$char_traits@D@std@@V?$allocator@D@2@@std@@@std@@QEAAPEAV?$basic_string@DU?$char_traits@D@std@@V?$allocator@D@2@@2@_K@Z
	?allocate@?$allocator@VArray@data@matlab@@@std@@QEAAPEAVArray@data@matlab@@_K@Z
	?allocate@?$allocator@_J@std@@QEAAPEA_J_K@Z
	?allocate@?$allocator@_K@std@@QEAAPEA_K_K@Z
	?append@?$basic_string@DU?$char_traits@D@std@@V?$allocator@D@2@@std@@QEAAAEAV12@AEBV12@@Z
	?append@?$basic_string@DU?$char_traits@D@std@@V?$allocator@D@2@@std@@QEAAAEAV12@QEBD_K@Z
	?append@?$basic_string@DU?$char_traits@D@std@@V?$allocator@D@2@@std@@QEAAAEAV12@_KD@Z
	?appendAndSendToMATLAB@MATLABSubscriberInterface@@UEAAXPEAXP6A_N0AEBV?$vector@VArray@data@matlab@@V?$allocator@VArray@data@matlab@@@std@@@std@@@ZAEAVArray@data@matlab@@@Z
	?append_int@detail@system@mwboost@@YAXAEAV?$basic_string@DU?$char_traits@D@std@@V?$allocator@D@2@@std@@H@Z
	?assign@?$basic_string@DU?$char_traits@D@std@@V?$allocator@D@2@@std@@QEAAAEAV12@QEBD_K@Z
	?assign_to_own@?$function0@V?$shared_ptr@U?$msg_cm_@V?$allocator@X@std@@@cm@@@mwboost@@@mwboost@@AEAAXAEBV12@@Z
	?assign_to_own@?$function1@XAEBV?$shared_ptr@$$CBU?$msg_cm_@V?$allocator@X@std@@@cm@@@mwboost@@@mwboost@@AEAAXAEBV12@@Z
	?assign_to_own@?$function1@XAEBVSingleSubscriberPublisher@ros@@@mwboost@@AEAAXAEBV12@@Z
	?assign_to_own@?$function1@XV?$shared_ptr@$$CBU?$msg_cm_@V?$allocator@X@std@@@cm@@@mwboost@@@mwboost@@AEAAXAEBV12@@Z
	?atomic_decrement@detail@mwboost@@YAHPEAU?$atomic@H@std@@@Z
	?begin@?$TypedArray@N@data@matlab@@QEAA?AV?$TypedIterator@N@23@XZ
	?begin@?$TypedArray@N@data@matlab@@QEBA?AV?$TypedIterator@$$CBN@23@XZ
	?begin@?$vector@NV?$allocator@N@std@@@std@@QEAA?AV?$_Vector_iterator@V?$_Vector_val@U?$_Simple_types@N@std@@@std@@@2@XZ
	?build_message@system_error@system@mwboost@@CA?AV?$basic_string@DU?$char_traits@D@std@@V?$allocator@D@2@@std@@PEBDAEBVerror_code@23@@Z
	?c_str@?$basic_string@DU?$char_traits@D@std@@V?$allocator@D@2@@std@@QEBAPEBDXZ
	?call@?$SubscriptionCallbackHelperT@AEBV?$shared_ptr@$$CBU?$msg_cm_@V?$allocator@X@std@@@cm@@@mwboost@@X@ros@@UEAAXAEAUSubscriptionCallbackHelperCallParams@2@@Z
	?callback@?$ROSSubscriberImpl@U?$msg_cm_@V?$allocator@X@std@@@cm@@V?$shared_ptr@$$CBU?$msg_cm_@V?$allocator@X@std@@@cm@@@mwboost@@Vcm_msg_msg_cm_common@@@@QEAAXAEBV?$shared_ptr@$$CBU?$msg_cm_@V?$allocator@X@std@@@cm@@@mwboost@@@Z
	?clear@?$function0@V?$shared_ptr@U?$msg_cm_@V?$allocator@X@std@@@cm@@@mwboost@@@mwboost@@QEAAXXZ
	?clear@?$function0@VSerializedMessage@ros@@@mwboost@@QEAAXXZ
	?clear@?$function1@XAEBV?$shared_ptr@$$CBU?$msg_cm_@V?$allocator@X@std@@@cm@@@mwboost@@@mwboost@@QEAAXXZ
	?clear@?$function1@XAEBVSingleSubscriberPublisher@ros@@@mwboost@@QEAAXXZ
	?clear@?$function1@XV?$shared_ptr@$$CBU?$msg_cm_@V?$allocator@X@std@@@cm@@@mwboost@@@mwboost@@QEAAXXZ
	?clear_waiting_and_try_lock@basic_timed_mutex@detail@mwboost@@QEAAXAEAJ@Z
	?clone@?$clone_impl@Ubad_alloc_@exception_detail@mwboost@@@exception_detail@mwboost@@$0PPPPPPPM@A@EBAPEBVclone_base@23@XZ
	?clone@?$clone_impl@Ubad_alloc_@exception_detail@mwboost@@@exception_detail@mwboost@@EEBAPEBVclone_base@23@XZ
	?clone@?$clone_impl@Ubad_exception_@exception_detail@mwboost@@@exception_detail@mwboost@@$0PPPPPPPM@A@EBAPEBVclone_base@23@XZ
	?clone@?$clone_impl@Ubad_exception_@exception_detail@mwboost@@@exception_detail@mwboost@@EEBAPEBVclone_base@23@XZ
	?clone@?$wrapexcept@Vbad_function_call@mwboost@@@mwboost@@UEBAPEBVclone_base@exception_detail@2@XZ
	?clone@?$wrapexcept@Vlock_error@mwboost@@@mwboost@@UEBAPEBVclone_base@exception_detail@2@XZ
	?clone@?$wrapexcept@Vthread_resource_error@mwboost@@@mwboost@@UEBAPEBVclone_base@exception_detail@2@XZ
	?compare@?$basic_string@DU?$char_traits@D@std@@V?$allocator@D@2@@std@@QEBAHAEBV12@@Z
	?copy_boost_exception@exception_detail@mwboost@@YAXPEAVexception@2@PEBV32@@Z
	?copy_from_struct@cm_msg_msg_cm_common@@UEAAXPEAU?$msg_cm_@V?$allocator@X@std@@@cm@@AEBVStruct@data@matlab@@PEAVMultiLibraryClassLoader@ros1_class_loader@@@Z
	?create@?$MetaObject@Vcm_msg_cm_message@@VROSMsgElementInterfaceFactory@@@impl@ros1_class_loader@@UEBAPEAVROSMsgElementInterfaceFactory@@XZ
	?create@?$MetaObject@Vcm_msg_msg_cm_common@@V?$MATLABROSMsgInterface@U?$msg_cm_@V?$allocator@X@std@@@cm@@@@@impl@ros1_class_loader@@UEBAPEAV?$MATLABROSMsgInterface@U?$msg_cm_@V?$allocator@X@std@@@cm@@@@XZ
	?createCharArray@ArrayFactory@data@matlab@@QEAA?AVCharArray@23@AEBV?$basic_string@DU?$char_traits@D@std@@V?$allocator@D@2@@std@@@Z
	?createPublisher@?$ROSPublisherImpl@U?$msg_cm_@V?$allocator@X@std@@@cm@@Vcm_msg_msg_cm_common@@@@UEAA_JAEBV?$basic_string@DU?$char_traits@D@std@@V?$allocator@D@2@@std@@_NV?$shared_ptr@VNodeHandle@ros@@@3@@Z
	?createPublisher@MATLABPublisherInterface@@UEAA_JAEBV?$basic_string@DU?$char_traits@D@std@@V?$allocator@D@2@@std@@_NV?$shared_ptr@VNodeHandle@ros@@@3@@Z
	?createStructArray@ArrayFactory@data@matlab@@QEAA?AVStructArray@23@V?$vector@_KV?$allocator@_K@std@@@std@@V?$vector@V?$basic_string@DU?$char_traits@D@std@@V?$allocator@D@2@@std@@V?$allocator@V?$basic_string@DU?$char_traits@D@std@@V?$allocator@D@2@@std@@@2@@6@@Z
	?createSubscription@?$ROSSubscriberImpl@U?$msg_cm_@V?$allocator@X@std@@@cm@@V?$shared_ptr@$$CBU?$msg_cm_@V?$allocator@X@std@@@cm@@@mwboost@@Vcm_msg_msg_cm_common@@@@UEAA_JAEBV?$basic_string@DU?$char_traits@D@std@@V?$allocator@D@2@@std@@V?$shared_ptr@VNodeHandle@ros@@@3@PEAXP6A_N2AEBV?$vector@VArray@data@matlab@@V?$allocator@VArray@data@matlab@@@std@@@3@@ZI@Z
	?createSubscription@MATLABSubscriberInterface@@UEAA_JAEBV?$basic_string@DU?$char_traits@D@std@@V?$allocator@D@2@@std@@V?$shared_ptr@VNodeHandle@ros@@@3@PEAXP6A_N2AEBV?$vector@VArray@data@matlab@@V?$allocator@VArray@data@matlab@@@std@@@3@@ZI@Z
	?create_anonymous_event@win32@detail@mwboost@@YAPEAXW4event_type@123@W4initial_event_state@123@@Z
	?deallocate@?$allocator@N@std@@QEAAXQEAN_K@Z
	?deallocate@?$allocator@V?$basic_string@DU?$char_traits@D@std@@V?$allocator@D@2@@std@@@std@@QEAAXQEAV?$basic_string@DU?$char_traits@D@std@@V?$allocator@D@2@@2@_K@Z
	?default_error_condition@error_category@system@mwboost@@UEBA?AVerror_condition@23@H@Z
	?default_error_condition@system_error_category@detail@system@mwboost@@UEBA?AVerror_condition@34@H@Z
	?deserialize@?$SubscriptionCallbackHelperT@AEBV?$shared_ptr@$$CBU?$msg_cm_@V?$allocator@X@std@@@cm@@@mwboost@@X@ros@@UEAA?AV?$shared_ptr@$$CBX@mwboost@@AEBUSubscriptionCallbackHelperDeserializeParams@2@@Z
	?destroy@?$sp_ms_deleter@U?$msg_cm_@V?$allocator@X@std@@@cm@@@detail@mwboost@@AEAAXXZ
	?destroy@?$sp_ms_deleter@V?$SubscriptionCallbackHelperT@AEBV?$shared_ptr@$$CBU?$msg_cm_@V?$allocator@X@std@@@cm@@@mwboost@@X@ros@@@detail@mwboost@@AEAAXXZ
	?destroy@?$sp_ms_deleter@V?$map@V?$basic_string@DU?$char_traits@D@std@@V?$allocator@D@2@@std@@V12@U?$less@V?$basic_string@DU?$char_traits@D@std@@V?$allocator@D@2@@std@@@2@V?$allocator@U?$pair@$$CBV?$basic_string@DU?$char_traits@D@std@@V?$allocator@D@2@@std@@V12@@std@@@2@@std@@@detail@mwboost@@AEAAXXZ
	?destroy@sp_counted_base@detail@mwboost@@UEAAXXZ
	?dispose@?$sp_counted_impl_p@V?$clone_impl@Ubad_alloc_@exception_detail@mwboost@@@exception_detail@mwboost@@@detail@mwboost@@UEAAXXZ
	?dispose@?$sp_counted_impl_p@V?$clone_impl@Ubad_exception_@exception_detail@mwboost@@@exception_detail@mwboost@@@detail@mwboost@@UEAAXXZ
	?dispose@?$sp_counted_impl_pd@PEAEU?$checked_array_deleter@E@mwboost@@@detail@mwboost@@UEAAXXZ
	?dispose@?$sp_counted_impl_pd@PEAU?$msg_cm_@V?$allocator@X@std@@@cm@@V?$sp_ms_deleter@U?$msg_cm_@V?$allocator@X@std@@@cm@@@detail@mwboost@@@detail@mwboost@@UEAAXXZ
	?dispose@?$sp_counted_impl_pd@PEAV?$MATLABROSMsgInterface@U?$Header_@V?$allocator@X@std@@@std_msgs@@@@V?$bind_t@XV?$mf1@XVClassLoader@ros1_class_loader@@PEAV?$MATLABROSMsgInterface@U?$Header_@V?$allocator@X@std@@@std_msgs@@@@@_mfi@mwboost@@V?$list2@V?$value@PEAVClassLoader@ros1_class_loader@@@_bi@mwboost@@U?$arg@$00@3@@_bi@3@@_bi@mwboost@@@detail@mwboost@@UEAAXXZ
	?dispose@?$sp_counted_impl_pd@PEAV?$SubscriptionCallbackHelperT@AEBV?$shared_ptr@$$CBU?$msg_cm_@V?$allocator@X@std@@@cm@@@mwboost@@X@ros@@V?$sp_ms_deleter@V?$SubscriptionCallbackHelperT@AEBV?$shared_ptr@$$CBU?$msg_cm_@V?$allocator@X@std@@@cm@@@mwboost@@X@ros@@@detail@mwboost@@@detail@mwboost@@UEAAXXZ
	?dispose@?$sp_counted_impl_pd@PEAV?$map@V?$basic_string@DU?$char_traits@D@std@@V?$allocator@D@2@@std@@V12@U?$less@V?$basic_string@DU?$char_traits@D@std@@V?$allocator@D@2@@std@@@2@V?$allocator@U?$pair@$$CBV?$basic_string@DU?$char_traits@D@std@@V?$allocator@D@2@@std@@V12@@std@@@2@@std@@V?$sp_ms_deleter@V?$map@V?$basic_string@DU?$char_traits@D@std@@V?$allocator@D@2@@std@@V12@U?$less@V?$basic_string@DU?$char_traits@D@std@@V?$allocator@D@2@@std@@@2@V?$allocator@U?$pair@$$CBV?$basic_string@DU?$char_traits@D@std@@V?$allocator@D@2@@std@@V12@@std@@@2@@std@@@detail@mwboost@@@detail@mwboost@@UEAAXXZ
	?end@?$TypedArray@N@data@matlab@@QEAA?AV?$TypedIterator@N@23@XZ
	?end@?$basic_string@DU?$char_traits@D@std@@V?$allocator@D@2@@std@@QEBA?AV?$_String_const_iterator@V?$_String_val@U?$_Simple_types@D@std@@@std@@@2@XZ
	?end@?$vector@NV?$allocator@N@std@@@std@@QEAA?AV?$_Vector_iterator@V?$_Vector_val@U?$_Simple_types@N@std@@@std@@@2@XZ
	?equal@stl_type_index@typeindex@mwboost@@QEBA_NAEBV123@@Z
	?equals@error_code@system@mwboost@@AEBA_NHAEBVerror_category@23@@Z
	?equivalent@error_category@system@mwboost@@UEBA_NAEBVerror_code@23@H@Z
	?equivalent@error_category@system@mwboost@@UEBA_NHAEBVerror_condition@23@@Z
	?failed@error_category@system@mwboost@@UEBA_NH@Z
	?generateActClientInterface@ROSMsgElementInterfaceFactory@@UEAA?AV?$shared_ptr@VMATLABActClientInterface@@@std@@XZ
	?generateActServerInterface@ROSMsgElementInterfaceFactory@@UEAA?AV?$shared_ptr@VMATLABActServerInterface@@@std@@XZ
	?generatePublisherInterface@cm_msg_cm_message@@UEAA?AV?$shared_ptr@VMATLABPublisherInterface@@@std@@W4ElementType@@@Z
	?generateRosbagWriterInterface@ROSMsgElementInterfaceFactory@@UEAA?AV?$shared_ptr@VMATLABRosbagWriterInterface@@@std@@W4ElementType@@@Z
	?generateRosbagWriterInterface@cm_msg_cm_message@@UEAA?AV?$shared_ptr@VMATLABRosbagWriterInterface@@@std@@W4ElementType@@@Z
	?generateSubscriberInterface@cm_msg_cm_message@@UEAA?AV?$shared_ptr@VMATLABSubscriberInterface@@@std@@W4ElementType@@@Z
	?generateSvcClientInterface@ROSMsgElementInterfaceFactory@@UEAA?AV?$shared_ptr@VMATLABSvcClientInterface@@@std@@XZ
	?generateSvcServerInterface@ROSMsgElementInterfaceFactory@@UEAA?AV?$shared_ptr@VMATLABSvcServerInterface@@@std@@XZ
	?generic_error_category_message@detail@system@mwboost@@YAPEBDHPEAD_K@Z
	?getDimensions@Array@data@matlab@@QEBA?AV?$vector@_KV?$allocator@_K@std@@@std@@XZ
	?getInMemoryIndex@ColumnMajorOrder@detail@data@matlab@@SA_K_KAEBV?$vector@_JV?$allocator@_J@std@@@std@@AEBV?$vector@_KV?$allocator@_K@std@@@6@@Z
	?getInMemoryIndex@RowMajorOrder@detail@data@matlab@@SA_K_KAEBV?$vector@_JV?$allocator@_J@std@@@std@@AEBV?$vector@_KV?$allocator@_K@std@@@6@@Z
	?getMemoryLayout@?$IteratorFactory@$$YColumnMajorIterator@data@matlab@@@detail@data@matlab@@CA?AW4MemoryLayout@34@AEBVArray@34@@Z
	?getMemoryLayout@?$IteratorFactory@$$YRowMajorIterator@data@matlab@@@detail@data@matlab@@CA?AW4MemoryLayout@34@AEBVArray@34@@Z
	?getNumberOfElements@Array@data@matlab@@QEBA_KXZ
	?getType@Array@data@matlab@@QEBA?AW4ArrayType@23@XZ
	?getTypeInfo@?$SubscriptionCallbackHelperT@AEBV?$shared_ptr@$$CBU?$msg_cm_@V?$allocator@X@std@@@cm@@@mwboost@@X@ros@@UEAAAEBVtype_info@@XZ
	?get_arr@cm_msg_msg_cm_common@@UEAA?AVArray@data@matlab@@AEAVArrayFactory@34@PEBU?$msg_cm_@V?$allocator@X@std@@@cm@@PEAVMultiLibraryClassLoader@ros1_class_loader@@_K@Z
	?get_deleter@?$sp_counted_impl_p@V?$clone_impl@Ubad_alloc_@exception_detail@mwboost@@@exception_detail@mwboost@@@detail@mwboost@@UEAAPEAXAEBVtype_info@@@Z
	?get_deleter@?$sp_counted_impl_p@V?$clone_impl@Ubad_exception_@exception_detail@mwboost@@@exception_detail@mwboost@@@detail@mwboost@@UEAAPEAXAEBVtype_info@@@Z
	?get_deleter@?$sp_counted_impl_pd@PEAEU?$checked_array_deleter@E@mwboost@@@detail@mwboost@@UEAAPEAXAEBVtype_info@@@Z
	?get_deleter@?$sp_counted_impl_pd@PEAU?$msg_cm_@V?$allocator@X@std@@@cm@@V?$sp_ms_deleter@U?$msg_cm_@V?$allocator@X@std@@@cm@@@detail@mwboost@@@detail@mwboost@@UEAAPEAXAEBVtype_info@@@Z
	?get_deleter@?$sp_counted_impl_pd@PEAV?$MATLABROSMsgInterface@U?$Header_@V?$allocator@X@std@@@std_msgs@@@@V?$bind_t@XV?$mf1@XVClassLoader@ros1_class_loader@@PEAV?$MATLABROSMsgInterface@U?$Header_@V?$allocator@X@std@@@std_msgs@@@@@_mfi@mwboost@@V?$list2@V?$value@PEAVClassLoader@ros1_class_loader@@@_bi@mwboost@@U?$arg@$00@3@@_bi@3@@_bi@mwboost@@@detail@mwboost@@UEAAPEAXAEBVtype_info@@@Z
	?get_deleter@?$sp_counted_impl_pd@PEAV?$SubscriptionCallbackHelperT@AEBV?$shared_ptr@$$CBU?$msg_cm_@V?$allocator@X@std@@@cm@@@mwboost@@X@ros@@V?$sp_ms_deleter@V?$SubscriptionCallbackHelperT@AEBV?$shared_ptr@$$CBU?$msg_cm_@V?$allocator@X@std@@@cm@@@mwboost@@X@ros@@@detail@mwboost@@@detail@mwboost@@UEAAPEAXAEBVtype_info@@@Z
	?get_deleter@?$sp_counted_impl_pd@PEAV?$map@V?$basic_string@DU?$char_traits@D@std@@V?$allocator@D@2@@std@@V12@U?$less@V?$basic_string@DU?$char_traits@D@std@@V?$allocator@D@2@@std@@@2@V?$allocator@U?$pair@$$CBV?$basic_string@DU?$char_traits@D@std@@V?$allocator@D@2@@std@@V12@@std@@@2@@std@@V?$sp_ms_deleter@V?$map@V?$basic_string@DU?$char_traits@D@std@@V?$allocator@D@2@@std@@V12@U?$less@V?$basic_string@DU?$char_traits@D@std@@V?$allocator@D@2@@std@@@2@V?$allocator@U?$pair@$$CBV?$basic_string@DU?$char_traits@D@std@@V?$allocator@D@2@@std@@V12@@std@@@2@@std@@@detail@mwboost@@@detail@mwboost@@UEAAPEAXAEBVtype_info@@@Z
	?get_event@basic_timed_mutex@detail@mwboost@@AEAAPEAXXZ
	?get_local_deleter@?$sp_counted_impl_p@V?$clone_impl@Ubad_alloc_@exception_detail@mwboost@@@exception_detail@mwboost@@@detail@mwboost@@UEAAPEAXAEBVtype_info@@@Z
	?get_local_deleter@?$sp_counted_impl_p@V?$clone_impl@Ubad_exception_@exception_detail@mwboost@@@exception_detail@mwboost@@@detail@mwboost@@UEAAPEAXAEBVtype_info@@@Z
	?get_local_deleter@?$sp_counted_impl_pd@PEAEU?$checked_array_deleter@E@mwboost@@@detail@mwboost@@UEAAPEAXAEBVtype_info@@@Z
	?get_local_deleter@?$sp_counted_impl_pd@PEAU?$msg_cm_@V?$allocator@X@std@@@cm@@V?$sp_ms_deleter@U?$msg_cm_@V?$allocator@X@std@@@cm@@@detail@mwboost@@@detail@mwboost@@UEAAPEAXAEBVtype_info@@@Z
	?get_local_deleter@?$sp_counted_impl_pd@PEAV?$MATLABROSMsgInterface@U?$Header_@V?$allocator@X@std@@@std_msgs@@@@V?$bind_t@XV?$mf1@XVClassLoader@ros1_class_loader@@PEAV?$MATLABROSMsgInterface@U?$Header_@V?$allocator@X@std@@@std_msgs@@@@@_mfi@mwboost@@V?$list2@V?$value@PEAVClassLoader@ros1_class_loader@@@_bi@mwboost@@U?$arg@$00@3@@_bi@3@@_bi@mwboost@@@detail@mwboost@@UEAAPEAXAEBVtype_info@@@Z
	?get_local_deleter@?$sp_counted_impl_pd@PEAV?$SubscriptionCallbackHelperT@AEBV?$shared_ptr@$$CBU?$msg_cm_@V?$allocator@X@std@@@cm@@@mwboost@@X@ros@@V?$sp_ms_deleter@V?$SubscriptionCallbackHelperT@AEBV?$shared_ptr@$$CBU?$msg_cm_@V?$allocator@X@std@@@cm@@@mwboost@@X@ros@@@detail@mwboost@@@detail@mwboost@@UEAAPEAXAEBVtype_info@@@Z
	?get_local_deleter@?$sp_counted_impl_pd@PEAV?$map@V?$basic_string@DU?$char_traits@D@std@@V?$allocator@D@2@@std@@V12@U?$less@V?$basic_string@DU?$char_traits@D@std@@V?$allocator@D@2@@std@@@2@V?$allocator@U?$pair@$$CBV?$basic_string@DU?$char_traits@D@std@@V?$allocator@D@2@@std@@V12@@std@@@2@@std@@V?$sp_ms_deleter@V?$map@V?$basic_string@DU?$char_traits@D@std@@V?$allocator@D@2@@std@@V12@U?$less@V?$basic_string@DU?$char_traits@D@std@@V?$allocator@D@2@@std@@@2@V?$allocator@U?$pair@$$CBV?$basic_string@DU?$char_traits@D@std@@V?$allocator@D@2@@std@@V12@@std@@@2@@std@@@detail@mwboost@@@detail@mwboost@@UEAAPEAXAEBVtype_info@@@Z
	?get_untyped_deleter@?$sp_counted_impl_p@V?$clone_impl@Ubad_alloc_@exception_detail@mwboost@@@exception_detail@mwboost@@@detail@mwboost@@UEAAPEAXXZ
	?get_untyped_deleter@?$sp_counted_impl_p@V?$clone_impl@Ubad_exception_@exception_detail@mwboost@@@exception_detail@mwboost@@@detail@mwboost@@UEAAPEAXXZ
	?get_untyped_deleter@?$sp_counted_impl_pd@PEAEU?$checked_array_deleter@E@mwboost@@@detail@mwboost@@UEAAPEAXXZ
	?get_untyped_deleter@?$sp_counted_impl_pd@PEAU?$msg_cm_@V?$allocator@X@std@@@cm@@V?$sp_ms_deleter@U?$msg_cm_@V?$allocator@X@std@@@cm@@@detail@mwboost@@@detail@mwboost@@UEAAPEAXXZ
	?get_untyped_deleter@?$sp_counted_impl_pd@PEAV?$MATLABROSMsgInterface@U?$Header_@V?$allocator@X@std@@@std_msgs@@@@V?$bind_t@XV?$mf1@XVClassLoader@ros1_class_loader@@PEAV?$MATLABROSMsgInterface@U?$Header_@V?$allocator@X@std@@@std_msgs@@@@@_mfi@mwboost@@V?$list2@V?$value@PEAVClassLoader@ros1_class_loader@@@_bi@mwboost@@U?$arg@$00@3@@_bi@3@@_bi@mwboost@@@detail@mwboost@@UEAAPEAXXZ
	?get_untyped_deleter@?$sp_counted_impl_pd@PEAV?$SubscriptionCallbackHelperT@AEBV?$shared_ptr@$$CBU?$msg_cm_@V?$allocator@X@std@@@cm@@@mwboost@@X@ros@@V?$sp_ms_deleter@V?$SubscriptionCallbackHelperT@AEBV?$shared_ptr@$$CBU?$msg_cm_@V?$allocator@X@std@@@cm@@@mwboost@@X@ros@@@detail@mwboost@@@detail@mwboost@@UEAAPEAXXZ
	?get_untyped_deleter@?$sp_counted_impl_pd@PEAV?$map@V?$basic_string@DU?$char_traits@D@std@@V?$allocator@D@2@@std@@V12@U?$less@V?$basic_string@DU?$char_traits@D@std@@V?$allocator@D@2@@std@@@2@V?$allocator@U?$pair@$$CBV?$basic_string@DU?$char_traits@D@std@@V?$allocator@D@2@@std@@V12@@std@@@2@@std@@V?$sp_ms_deleter@V?$map@V?$basic_string@DU?$char_traits@D@std@@V?$allocator@D@2@@std@@V12@U?$less@V?$basic_string@DU?$char_traits@D@std@@V?$allocator@D@2@@std@@@2@V?$allocator@U?$pair@$$CBV?$basic_string@DU?$char_traits@D@std@@V?$allocator@D@2@@std@@V12@@std@@@2@@std@@@detail@mwboost@@@detail@mwboost@@UEAAPEAXXZ
	?hasHeader@?$SubscriptionCallbackHelperT@AEBV?$shared_ptr@$$CBU?$msg_cm_@V?$allocator@X@std@@@cm@@@mwboost@@X@ros@@UEAA_NXZ
	?has_empty_target@function@detail@mwboost@@YA_NZZ
	?init@?$MessageEvent@$$CBU?$msg_cm_@V?$allocator@X@std@@@cm@@@ros@@QEAAXAEBV?$shared_ptr@$$CBU?$msg_cm_@V?$allocator@X@std@@@cm@@@mwboost@@AEBV?$shared_ptr@V?$map@V?$basic_string@DU?$char_traits@D@std@@V?$allocator@D@2@@std@@V12@U?$less@V?$basic_string@DU?$char_traits@D@std@@V?$allocator@D@2@@std@@@2@V?$allocator@U?$pair@$$CBV?$basic_string@DU?$char_traits@D@std@@V?$allocator@D@2@@std@@V12@@std@@@2@@std@@@4@VTime@2@_NAEBV?$function@$$A6A?AV?$shared_ptr@U?$msg_cm_@V?$allocator@X@std@@@cm@@@mwboost@@XZ@4@@Z
	?invoke@?$function_obj_invoker0@U?$DefaultMessageCreator@U?$msg_cm_@V?$allocator@X@std@@@cm@@@ros@@V?$shared_ptr@U?$msg_cm_@V?$allocator@X@std@@@cm@@@mwboost@@@function@detail@mwboost@@SA?AV?$shared_ptr@U?$msg_cm_@V?$allocator@X@std@@@cm@@@4@AEATfunction_buffer@234@@Z
	?invoke@?$function_obj_invoker0@V?$bind_t@VSerializedMessage@ros@@P6A?AV12@AEBU?$msg_cm_@V?$allocator@X@std@@@cm@@@ZV?$list1@V?$reference_wrapper@U?$msg_cm_@V?$allocator@X@std@@@cm@@@mwboost@@@_bi@mwboost@@@_bi@mwboost@@VSerializedMessage@ros@@@function@detail@mwboost@@SA?AVSerializedMessage@ros@@AEATfunction_buffer@234@@Z
	?invoke@?$void_function_obj_invoker1@V?$bind_t@XV?$mf1@XV?$ROSSubscriberImpl@U?$msg_cm_@V?$allocator@X@std@@@cm@@V?$shared_ptr@$$CBU?$msg_cm_@V?$allocator@X@std@@@cm@@@mwboost@@Vcm_msg_msg_cm_common@@@@AEBV?$shared_ptr@$$CBU?$msg_cm_@V?$allocator@X@std@@@cm@@@mwboost@@@_mfi@mwboost@@V?$list2@V?$value@PEAV?$ROSSubscriberImpl@U?$msg_cm_@V?$allocator@X@std@@@cm@@V?$shared_ptr@$$CBU?$msg_cm_@V?$allocator@X@std@@@cm@@@mwboost@@Vcm_msg_msg_cm_common@@@@@_bi@mwboost@@U?$arg@$00@3@@_bi@3@@_bi@mwboost@@XAEBV?$shared_ptr@$$CBU?$msg_cm_@V?$allocator@X@std@@@cm@@@3@@function@detail@mwboost@@SAXAEATfunction_buffer@234@AEBV?$shared_ptr@$$CBU?$msg_cm_@V?$allocator@X@std@@@cm@@@4@@Z
	?invoke@?$void_function_obj_invoker1@V?$function@$$A6AXAEBV?$shared_ptr@$$CBU?$msg_cm_@V?$allocator@X@std@@@cm@@@mwboost@@@Z@mwboost@@XV?$shared_ptr@$$CBU?$msg_cm_@V?$allocator@X@std@@@cm@@@2@@function@detail@mwboost@@SAXAEATfunction_buffer@234@V?$shared_ptr@$$CBU?$msg_cm_@V?$allocator@X@std@@@cm@@@4@@Z
	?isAscii7@detail@data@matlab@@YA_NAEBV?$basic_string@DU?$char_traits@D@std@@V?$allocator@D@2@@std@@@Z
	?isConst@?$SubscriptionCallbackHelperT@AEBV?$shared_ptr@$$CBU?$msg_cm_@V?$allocator@X@std@@@cm@@@mwboost@@X@ros@@UEAA_NXZ
	?lock@?$basic_recursive_mutex_impl@Ubasic_timed_mutex@detail@mwboost@@@detail@mwboost@@QEAAXXZ
	?lock@?$unique_lock@Vrecursive_mutex@mwboost@@@mwboost@@QEAAXXZ
	?lock@basic_timed_mutex@detail@mwboost@@QEAAXXZ
	?manage@?$functor_manager@U?$DefaultMessageCreator@U?$msg_cm_@V?$allocator@X@std@@@cm@@@ros@@@function@detail@mwboost@@SAXAEBTfunction_buffer@234@AEAT5234@W4functor_manager_operation_type@234@@Z
	?manage@?$functor_manager@V?$bind_t@VSerializedMessage@ros@@P6A?AV12@AEBU?$msg_cm_@V?$allocator@X@std@@@cm@@@ZV?$list1@V?$reference_wrapper@U?$msg_cm_@V?$allocator@X@std@@@cm@@@mwboost@@@_bi@mwboost@@@_bi@mwboost@@@function@detail@mwboost@@SAXAEBTfunction_buffer@234@AEAT5234@W4functor_manager_operation_type@234@@Z
	?manage@?$functor_manager@V?$bind_t@XV?$mf1@XV?$ROSSubscriberImpl@U?$msg_cm_@V?$allocator@X@std@@@cm@@V?$shared_ptr@$$CBU?$msg_cm_@V?$allocator@X@std@@@cm@@@mwboost@@Vcm_msg_msg_cm_common@@@@AEBV?$shared_ptr@$$CBU?$msg_cm_@V?$allocator@X@std@@@cm@@@mwboost@@@_mfi@mwboost@@V?$list2@V?$value@PEAV?$ROSSubscriberImpl@U?$msg_cm_@V?$allocator@X@std@@@cm@@V?$shared_ptr@$$CBU?$msg_cm_@V?$allocator@X@std@@@cm@@@mwboost@@Vcm_msg_msg_cm_common@@@@@_bi@mwboost@@U?$arg@$00@3@@_bi@3@@_bi@mwboost@@@function@detail@mwboost@@SAXAEBTfunction_buffer@234@AEAT5234@W4functor_manager_operation_type@234@@Z
	?manage@?$functor_manager@V?$function@$$A6AXAEBV?$shared_ptr@$$CBU?$msg_cm_@V?$allocator@X@std@@@cm@@@mwboost@@@Z@mwboost@@@function@detail@mwboost@@SAXAEBTfunction_buffer@234@AEAT5234@W4functor_manager_operation_type@234@@Z
	?manage_small@?$functor_manager_common@U?$DefaultMessageCreator@U?$msg_cm_@V?$allocator@X@std@@@cm@@@ros@@@function@detail@mwboost@@SAXAEBTfunction_buffer@234@AEAT5234@W4functor_manager_operation_type@234@@Z
	?manage_small@?$functor_manager_common@V?$bind_t@VSerializedMessage@ros@@P6A?AV12@AEBU?$msg_cm_@V?$allocator@X@std@@@cm@@@ZV?$list1@V?$reference_wrapper@U?$msg_cm_@V?$allocator@X@std@@@cm@@@mwboost@@@_bi@mwboost@@@_bi@mwboost@@@function@detail@mwboost@@SAXAEBTfunction_buffer@234@AEAT5234@W4functor_manager_operation_type@234@@Z
	?manage_small@?$functor_manager_common@V?$bind_t@XV?$mf1@XV?$ROSSubscriberImpl@U?$msg_cm_@V?$allocator@X@std@@@cm@@V?$shared_ptr@$$CBU?$msg_cm_@V?$allocator@X@std@@@cm@@@mwboost@@Vcm_msg_msg_cm_common@@@@AEBV?$shared_ptr@$$CBU?$msg_cm_@V?$allocator@X@std@@@cm@@@mwboost@@@_mfi@mwboost@@V?$list2@V?$value@PEAV?$ROSSubscriberImpl@U?$msg_cm_@V?$allocator@X@std@@@cm@@V?$shared_ptr@$$CBU?$msg_cm_@V?$allocator@X@std@@@cm@@@mwboost@@Vcm_msg_msg_cm_common@@@@@_bi@mwboost@@U?$arg@$00@3@@_bi@3@@_bi@mwboost@@@function@detail@mwboost@@SAXAEBTfunction_buffer@234@AEAT5234@W4functor_manager_operation_type@234@@Z
	?manager@?$functor_manager@V?$function@$$A6AXAEBV?$shared_ptr@$$CBU?$msg_cm_@V?$allocator@X@std@@@cm@@@mwboost@@@Z@mwboost@@@function@detail@mwboost@@CAXAEBTfunction_buffer@234@AEAT5234@W4functor_manager_operation_type@234@U?$integral_constant@_N$0A@@4@@Z
	?mark_waiting_and_try_lock@basic_timed_mutex@detail@mwboost@@QEAAXAEAJ@Z
	?max_size@?$basic_string@DU?$char_traits@D@std@@V?$allocator@D@2@@std@@QEBA_KXZ
	?message@error_code@system@mwboost@@QEBA?AV?$basic_string@DU?$char_traits@D@std@@V?$allocator@D@2@@std@@XZ
	?message@generic_error_category@detail@system@mwboost@@UEBA?AV?$basic_string@DU?$char_traits@D@std@@V?$allocator@D@2@@std@@H@Z
	?message@generic_error_category@detail@system@mwboost@@UEBAPEBDHPEAD_K@Z
	?message@interop_error_category@detail@system@mwboost@@UEBA?AV?$basic_string@DU?$char_traits@D@std@@V?$allocator@D@2@@std@@H@Z
	?message@interop_error_category@detail@system@mwboost@@UEBAPEBDHPEAD_K@Z
	?message@system_error_category@detail@system@mwboost@@UEBA?AV?$basic_string@DU?$char_traits@D@std@@V?$allocator@D@2@@std@@H@Z
	?message@system_error_category@detail@system@mwboost@@UEBAPEBDHPEAD_K@Z
	?move_assign@?$function0@V?$shared_ptr@U?$msg_cm_@V?$allocator@X@std@@@cm@@@mwboost@@@mwboost@@AEAAXAEAV12@@Z
	?move_assign@?$function1@XAEBVSingleSubscriberPublisher@ros@@@mwboost@@AEAAXAEAV12@@Z
	?name@generic_error_category@detail@system@mwboost@@UEBAPEBDXZ
	?name@interop_error_category@detail@system@mwboost@@UEBAPEBDXZ
	?name@system_error_category@detail@system@mwboost@@UEBAPEBDXZ
	?next@ColumnMajorOrder@detail@data@matlab@@SAX_KAEBV?$vector@_KV?$allocator@_K@std@@@std@@AEAV?$vector@_JV?$allocator@_J@std@@@6@@Z
	?next@RowMajorOrder@detail@data@matlab@@SAX_KAEBV?$vector@_KV?$allocator@_K@std@@@std@@AEAV?$vector@_JV?$allocator@_J@std@@@6@@Z
	?operator_fn@?$sp_ms_deleter@U?$msg_cm_@V?$allocator@X@std@@@cm@@@detail@mwboost@@SAXPEAU?$msg_cm_@V?$allocator@X@std@@@cm@@@Z
	?operator_fn@?$sp_ms_deleter@V?$SubscriptionCallbackHelperT@AEBV?$shared_ptr@$$CBU?$msg_cm_@V?$allocator@X@std@@@cm@@@mwboost@@X@ros@@@detail@mwboost@@SAXPEAV?$SubscriptionCallbackHelperT@AEBV?$shared_ptr@$$CBU?$msg_cm_@V?$allocator@X@std@@@cm@@@mwboost@@X@ros@@@Z
	?operator_fn@?$sp_ms_deleter@V?$map@V?$basic_string@DU?$char_traits@D@std@@V?$allocator@D@2@@std@@V12@U?$less@V?$basic_string@DU?$char_traits@D@std@@V?$allocator@D@2@@std@@@2@V?$allocator@U?$pair@$$CBV?$basic_string@DU?$char_traits@D@std@@V?$allocator@D@2@@std@@V12@@std@@@2@@std@@@detail@mwboost@@SAXPEAV?$map@V?$basic_string@DU?$char_traits@D@std@@V?$allocator@D@2@@std@@V12@U?$less@V?$basic_string@DU?$char_traits@D@std@@V?$allocator@D@2@@std@@@2@V?$allocator@U?$pair@$$CBV?$basic_string@DU?$char_traits@D@std@@V?$allocator@D@2@@std@@V12@@std@@@2@@std@@@Z
	?prev@ColumnMajorOrder@detail@data@matlab@@SAX_KAEBV?$vector@_KV?$allocator@_K@std@@@std@@AEAV?$vector@_JV?$allocator@_J@std@@@6@@Z
	?prev@RowMajorOrder@detail@data@matlab@@SAX_KAEBV?$vector@_KV?$allocator@_K@std@@@std@@AEAV?$vector@_JV?$allocator@_J@std@@@6@@Z
	?publish@?$ROSPublisherImpl@U?$msg_cm_@V?$allocator@X@std@@@cm@@Vcm_msg_msg_cm_common@@@@UEAA_NAEBVStructArray@data@matlab@@@Z
	?publish@MATLABPublisherInterface@@UEAA_NAEBVStructArray@data@matlab@@@Z
	?push_back@?$basic_string@DU?$char_traits@D@std@@V?$allocator@D@2@@std@@QEAAXD@Z
	?rbegin@?$vector@U?$pair@W4FunctionType@detail@data@matlab@@V?$basic_string@DU?$char_traits@D@std@@V?$allocator@D@2@@std@@@std@@V?$allocator@U?$pair@W4FunctionType@detail@data@matlab@@V?$basic_string@DU?$char_traits@D@std@@V?$allocator@D@2@@std@@@std@@@2@@std@@QEBA?AV?$reverse_iterator@V?$_Vector_const_iterator@V?$_Vector_val@U?$_Simple_types@U?$pair@W4FunctionType@detail@data@matlab@@V?$basic_string@DU?$char_traits@D@std@@V?$allocator@D@2@@std@@@std@@@std@@@std@@@std@@@2@XZ
	?release@?$refcount_ptr@Uerror_info_container@exception_detail@mwboost@@@exception_detail@mwboost@@AEAAXXZ
	?release@sp_counted_base@detail@mwboost@@QEAAXXZ
	?rend@?$vector@U?$pair@W4FunctionType@detail@data@matlab@@V?$basic_string@DU?$char_traits@D@std@@V?$allocator@D@2@@std@@@std@@V?$allocator@U?$pair@W4FunctionType@detail@data@matlab@@V?$basic_string@DU?$char_traits@D@std@@V?$allocator@D@2@@std@@@std@@@2@@std@@QEBA?AV?$reverse_iterator@V?$_Vector_const_iterator@V?$_Vector_val@U?$_Simple_types@U?$pair@W4FunctionType@detail@data@matlab@@V?$basic_string@DU?$char_traits@D@std@@V?$allocator@D@2@@std@@@std@@@std@@@std@@@std@@@2@XZ
	?rethrow@?$clone_impl@Ubad_alloc_@exception_detail@mwboost@@@exception_detail@mwboost@@$0PPPPPPPM@A@EBAXXZ
	?rethrow@?$clone_impl@Ubad_alloc_@exception_detail@mwboost@@@exception_detail@mwboost@@EEBAXXZ
	?rethrow@?$clone_impl@Ubad_exception_@exception_detail@mwboost@@@exception_detail@mwboost@@$0PPPPPPPM@A@EBAXXZ
	?rethrow@?$clone_impl@Ubad_exception_@exception_detail@mwboost@@@exception_detail@mwboost@@EEBAXXZ
	?rethrow@?$wrapexcept@Vbad_function_call@mwboost@@@mwboost@@UEBAXXZ
	?rethrow@?$wrapexcept@Vlock_error@mwboost@@@mwboost@@UEBAXXZ
	?rethrow@?$wrapexcept@Vthread_resource_error@mwboost@@@mwboost@@UEBAXXZ
	?serializedLength@?$VectorSerializer@V?$basic_string@DU?$char_traits@D@std@@V?$allocator@D@2@@std@@V?$allocator@V?$basic_string@DU?$char_traits@D@std@@V?$allocator@D@2@@std@@@2@X@serialization@ros@@SAIAEBV?$vector@V?$basic_string@DU?$char_traits@D@std@@V?$allocator@D@2@@std@@V?$allocator@V?$basic_string@DU?$char_traits@D@std@@V?$allocator@D@2@@std@@@2@@std@@@Z
	?setCommonObjMap@?$ROSBagWriterImpl@U?$msg_cm_@V?$allocator@X@std@@@cm@@Vcm_msg_msg_cm_common@@@@UEAAXPEAV?$map@V?$basic_string@DU?$char_traits@D@std@@V?$allocator@D@2@@std@@V?$shared_ptr@VMATLABROSMsgInterfaceBase@@@mwboost@@U?$less@V?$basic_string@DU?$char_traits@D@std@@V?$allocator@D@2@@std@@@2@V?$allocator@U?$pair@$$CBV?$basic_string@DU?$char_traits@D@std@@V?$allocator@D@2@@std@@V?$shared_ptr@VMATLABROSMsgInterfaceBase@@@mwboost@@@std@@@2@@std@@@Z
	?setCommonObjMap@?$ROSPublisherImpl@U?$msg_cm_@V?$allocator@X@std@@@cm@@Vcm_msg_msg_cm_common@@@@UEAAXPEAV?$map@V?$basic_string@DU?$char_traits@D@std@@V?$allocator@D@2@@std@@V?$shared_ptr@VMATLABROSMsgInterfaceBase@@@mwboost@@U?$less@V?$basic_string@DU?$char_traits@D@std@@V?$allocator@D@2@@std@@@2@V?$allocator@U?$pair@$$CBV?$basic_string@DU?$char_traits@D@std@@V?$allocator@D@2@@std@@V?$shared_ptr@VMATLABROSMsgInterfaceBase@@@mwboost@@@std@@@2@@std@@@Z
	?setCommonObjMap@?$ROSSubscriberImpl@U?$msg_cm_@V?$allocator@X@std@@@cm@@V?$shared_ptr@$$CBU?$msg_cm_@V?$allocator@X@std@@@cm@@@mwboost@@Vcm_msg_msg_cm_common@@@@UEAAXPEAV?$map@V?$basic_string@DU?$char_traits@D@std@@V?$allocator@D@2@@std@@V?$shared_ptr@VMATLABROSMsgInterfaceBase@@@mwboost@@U?$less@V?$basic_string@DU?$char_traits@D@std@@V?$allocator@D@2@@std@@@2@V?$allocator@U?$pair@$$CBV?$basic_string@DU?$char_traits@D@std@@V?$allocator@D@2@@std@@V?$shared_ptr@VMATLABROSMsgInterfaceBase@@@mwboost@@@std@@@2@@std@@@Z
	?setCommonObjMap@MATLABPublisherInterface@@UEAAXPEAV?$map@V?$basic_string@DU?$char_traits@D@std@@V?$allocator@D@2@@std@@V?$shared_ptr@VMATLABROSMsgInterfaceBase@@@mwboost@@U?$less@V?$basic_string@DU?$char_traits@D@std@@V?$allocator@D@2@@std@@@2@V?$allocator@U?$pair@$$CBV?$basic_string@DU?$char_traits@D@std@@V?$allocator@D@2@@std@@V?$shared_ptr@VMATLABROSMsgInterfaceBase@@@mwboost@@@std@@@2@@std@@@Z
	?setCommonObjMap@MATLABRosbagWriterInterface@@UEAAXPEAV?$map@V?$basic_string@DU?$char_traits@D@std@@V?$allocator@D@2@@std@@V?$shared_ptr@VMATLABROSMsgInterfaceBase@@@mwboost@@U?$less@V?$basic_string@DU?$char_traits@D@std@@V?$allocator@D@2@@std@@@2@V?$allocator@U?$pair@$$CBV?$basic_string@DU?$char_traits@D@std@@V?$allocator@D@2@@std@@V?$shared_ptr@VMATLABROSMsgInterfaceBase@@@mwboost@@@std@@@2@@std@@@Z
	?setCommonObjMap@MATLABSubscriberInterface@@UEAAXPEAV?$map@V?$basic_string@DU?$char_traits@D@std@@V?$allocator@D@2@@std@@V?$shared_ptr@VMATLABROSMsgInterfaceBase@@@mwboost@@U?$less@V?$basic_string@DU?$char_traits@D@std@@V?$allocator@D@2@@std@@@2@V?$allocator@U?$pair@$$CBV?$basic_string@DU?$char_traits@D@std@@V?$allocator@D@2@@std@@V?$shared_ptr@VMATLABROSMsgInterfaceBase@@@mwboost@@@std@@@2@@std@@@Z
	?snprintf@detail@system@mwboost@@YAXPEAD_KPEBDZZ
	?sp_enable_shared_from_this@detail@mwboost@@YAXZZ
	?swap@?$function0@V?$shared_ptr@U?$msg_cm_@V?$allocator@X@std@@@cm@@@mwboost@@@mwboost@@QEAAXAEAV12@@Z
	?swap@?$function1@XAEBVSingleSubscriberPublisher@ros@@@mwboost@@QEAAXAEAV12@@Z
	?swap@?$shared_array@E@mwboost@@QEAAXAEAV12@@Z
	?swap@?$shared_ptr@$$CBU?$msg_cm_@V?$allocator@X@std@@@cm@@@mwboost@@QEAAXAEAV12@@Z
	?swap@?$shared_ptr@$$CBX@mwboost@@QEAAXAEAV12@@Z
	?swap@?$shared_ptr@U?$msg_cm_@V?$allocator@X@std@@@cm@@@mwboost@@QEAAXAEAV12@@Z
	?swap@?$shared_ptr@V?$map@V?$basic_string@DU?$char_traits@D@std@@V?$allocator@D@2@@std@@V12@U?$less@V?$basic_string@DU?$char_traits@D@std@@V?$allocator@D@2@@std@@@2@V?$allocator@U?$pair@$$CBV?$basic_string@DU?$char_traits@D@std@@V?$allocator@D@2@@std@@V12@@std@@@2@@std@@@mwboost@@QEAAXAEAV12@@Z
	?swap@?$shared_ptr@VMATLABROSMsgInterfaceBase@@@mwboost@@QEAAXAEAV12@@Z
	?swap@?$shared_ptr@VSubscriptionCallbackHelper@ros@@@mwboost@@QEAAXAEAV12@@Z
	?system_category_condition_win32@detail@system@mwboost@@YAHH@Z
	?system_category_message_win32@detail@system@mwboost@@YA?AV?$basic_string@DU?$char_traits@D@std@@V?$allocator@D@2@@std@@H@Z
	?system_category_message_win32@detail@system@mwboost@@YAPEBDHPEAD_K@Z
	?throwIfError@detail@data@matlab@@YAXHAEBV?$basic_string@DU?$char_traits@D@std@@V?$allocator@D@2@@std@@@Z
	?throw_exception_assert_compatibility@mwboost@@YAXAEBVexception@std@@@Z
	?toAscii@CharArray@data@matlab@@QEBA?AV?$basic_string@DU?$char_traits@D@std@@V?$allocator@D@2@@std@@XZ
	?toAsciiHelper@detail@data@matlab@@YA?AV?$basic_string@DU?$char_traits@D@std@@V?$allocator@D@2@@std@@PEB_S_K@Z
	?to_string@error_code@system@mwboost@@QEBA?AV?$basic_string@DU?$char_traits@D@std@@V?$allocator@D@2@@std@@XZ
	?to_string@source_location@mwboost@@QEBA?AV?$basic_string@DU?$char_traits@D@std@@V?$allocator@D@2@@std@@XZ
	?try_lock@basic_timed_mutex@detail@mwboost@@QEAA_NXZ
	?unknown_message_win32@detail@system@mwboost@@YA?AV?$basic_string@DU?$char_traits@D@std@@V?$allocator@D@2@@std@@H@Z
	?unlock@?$basic_recursive_mutex_impl@Ubasic_timed_mutex@detail@mwboost@@@detail@mwboost@@QEAAXXZ
	?unlock@basic_timed_mutex@detail@mwboost@@QEAAXXZ
	?validate@?$ROSPublisherImpl@U?$msg_cm_@V?$allocator@X@std@@@cm@@Vcm_msg_msg_cm_common@@@@UEAAXAEBVStructArray@data@matlab@@@Z
	?validate@MATLABPublisherInterface@@UEAAXAEBVStructArray@data@matlab@@@Z
	?what@?$ArrayException@VException@matlab@@$00@detail@data@matlab@@UEBAPEBDXZ
	?what@?$ArrayException@VException@matlab@@$00@detail@data@matlab@@W7EBAPEBDXZ
	?what@?$ArrayException@VException@matlab@@$01@detail@data@matlab@@UEBAPEBDXZ
	?what@?$ArrayException@VException@matlab@@$01@detail@data@matlab@@W7EBAPEBDXZ
	?what@?$ArrayException@VException@matlab@@$02@detail@data@matlab@@UEBAPEBDXZ
	?what@?$ArrayException@VException@matlab@@$02@detail@data@matlab@@W7EBAPEBDXZ
	?what@?$ArrayException@VException@matlab@@$04@detail@data@matlab@@UEBAPEBDXZ
	?what@?$ArrayException@VException@matlab@@$04@detail@data@matlab@@W7EBAPEBDXZ
	?what@?$ArrayException@VException@matlab@@$05@detail@data@matlab@@UEBAPEBDXZ
	?what@?$ArrayException@VException@matlab@@$05@detail@data@matlab@@W7EBAPEBDXZ
	?what@?$ArrayException@VException@matlab@@$06@detail@data@matlab@@UEBAPEBDXZ
	?what@?$ArrayException@VException@matlab@@$06@detail@data@matlab@@W7EBAPEBDXZ
	?what@?$ArrayException@VException@matlab@@$07@detail@data@matlab@@UEBAPEBDXZ
	?what@?$ArrayException@VException@matlab@@$07@detail@data@matlab@@W7EBAPEBDXZ
	?what@?$ArrayException@VException@matlab@@$08@detail@data@matlab@@UEBAPEBDXZ
	?what@?$ArrayException@VException@matlab@@$08@detail@data@matlab@@W7EBAPEBDXZ
	?what@?$ArrayException@VException@matlab@@$09@detail@data@matlab@@UEBAPEBDXZ
	?what@?$ArrayException@VException@matlab@@$09@detail@data@matlab@@W7EBAPEBDXZ
	?what@?$ArrayException@VException@matlab@@$0BA@@detail@data@matlab@@UEBAPEBDXZ
	?what@?$ArrayException@VException@matlab@@$0BA@@detail@data@matlab@@W7EBAPEBDXZ
	?what@?$ArrayException@VException@matlab@@$0BB@@detail@data@matlab@@UEBAPEBDXZ
	?what@?$ArrayException@VException@matlab@@$0BB@@detail@data@matlab@@W7EBAPEBDXZ
	?what@?$ArrayException@VException@matlab@@$0BC@@detail@data@matlab@@UEBAPEBDXZ
	?what@?$ArrayException@VException@matlab@@$0BC@@detail@data@matlab@@W7EBAPEBDXZ
	?what@?$ArrayException@VException@matlab@@$0BD@@detail@data@matlab@@UEBAPEBDXZ
	?what@?$ArrayException@VException@matlab@@$0BD@@detail@data@matlab@@W7EBAPEBDXZ
	?what@?$ArrayException@VException@matlab@@$0BE@@detail@data@matlab@@UEBAPEBDXZ
	?what@?$ArrayException@VException@matlab@@$0BE@@detail@data@matlab@@W7EBAPEBDXZ
	?what@?$ArrayException@VException@matlab@@$0BF@@detail@data@matlab@@UEBAPEBDXZ
	?what@?$ArrayException@VException@matlab@@$0BF@@detail@data@matlab@@W7EBAPEBDXZ
	?what@?$ArrayException@VException@matlab@@$0BG@@detail@data@matlab@@UEBAPEBDXZ
	?what@?$ArrayException@VException@matlab@@$0BG@@detail@data@matlab@@W7EBAPEBDXZ
	?what@?$ArrayException@VException@matlab@@$0BH@@detail@data@matlab@@UEBAPEBDXZ
	?what@?$ArrayException@VException@matlab@@$0BH@@detail@data@matlab@@W7EBAPEBDXZ
	?what@?$ArrayException@VException@matlab@@$0BI@@detail@data@matlab@@UEBAPEBDXZ
	?what@?$ArrayException@VException@matlab@@$0BI@@detail@data@matlab@@W7EBAPEBDXZ
	?what@?$ArrayException@VException@matlab@@$0BJ@@detail@data@matlab@@UEBAPEBDXZ
	?what@?$ArrayException@VException@matlab@@$0BJ@@detail@data@matlab@@W7EBAPEBDXZ
	?what@?$ArrayException@VException@matlab@@$0BK@@detail@data@matlab@@UEBAPEBDXZ
	?what@?$ArrayException@VException@matlab@@$0BK@@detail@data@matlab@@W7EBAPEBDXZ
	?what@?$ArrayException@VException@matlab@@$0BL@@detail@data@matlab@@UEBAPEBDXZ
	?what@?$ArrayException@VException@matlab@@$0BL@@detail@data@matlab@@W7EBAPEBDXZ
	?what@?$ArrayException@VException@matlab@@$0BM@@detail@data@matlab@@UEBAPEBDXZ
	?what@?$ArrayException@VException@matlab@@$0BM@@detail@data@matlab@@W7EBAPEBDXZ
	?what@?$ArrayException@VException@matlab@@$0BN@@detail@data@matlab@@UEBAPEBDXZ
	?what@?$ArrayException@VException@matlab@@$0BN@@detail@data@matlab@@W7EBAPEBDXZ
	?what@?$ArrayException@VException@matlab@@$0BO@@detail@data@matlab@@UEBAPEBDXZ
	?what@?$ArrayException@VException@matlab@@$0BO@@detail@data@matlab@@W7EBAPEBDXZ
	?what@?$ArrayException@VException@matlab@@$0BP@@detail@data@matlab@@UEBAPEBDXZ
	?what@?$ArrayException@VException@matlab@@$0BP@@detail@data@matlab@@W7EBAPEBDXZ
	?what@?$ArrayException@VException@matlab@@$0CA@@detail@data@matlab@@UEBAPEBDXZ
	?what@?$ArrayException@VException@matlab@@$0CA@@detail@data@matlab@@W7EBAPEBDXZ
	?what@?$ArrayException@VException@matlab@@$0CB@@detail@data@matlab@@UEBAPEBDXZ
	?what@?$ArrayException@VException@matlab@@$0CB@@detail@data@matlab@@W7EBAPEBDXZ
	?what@?$ArrayException@VException@matlab@@$0CC@@detail@data@matlab@@UEBAPEBDXZ
	?what@?$ArrayException@VException@matlab@@$0CC@@detail@data@matlab@@W7EBAPEBDXZ
	?what@?$ArrayException@VException@matlab@@$0CD@@detail@data@matlab@@UEBAPEBDXZ
	?what@?$ArrayException@VException@matlab@@$0CD@@detail@data@matlab@@W7EBAPEBDXZ
	?what@?$ArrayException@VException@matlab@@$0CE@@detail@data@matlab@@UEBAPEBDXZ
	?what@?$ArrayException@VException@matlab@@$0CE@@detail@data@matlab@@W7EBAPEBDXZ
	?what@?$ArrayException@VException@matlab@@$0CF@@detail@data@matlab@@UEBAPEBDXZ
	?what@?$ArrayException@VException@matlab@@$0CF@@detail@data@matlab@@W7EBAPEBDXZ
	?what@?$ArrayException@VException@matlab@@$0CG@@detail@data@matlab@@UEBAPEBDXZ
	?what@?$ArrayException@VException@matlab@@$0CG@@detail@data@matlab@@W7EBAPEBDXZ
	?what@?$ArrayException@VException@matlab@@$0CH@@detail@data@matlab@@UEBAPEBDXZ
	?what@?$ArrayException@VException@matlab@@$0CH@@detail@data@matlab@@W7EBAPEBDXZ
	?what@?$ArrayException@VException@matlab@@$0CI@@detail@data@matlab@@UEBAPEBDXZ
	?what@?$ArrayException@VException@matlab@@$0CI@@detail@data@matlab@@W7EBAPEBDXZ
	?what@?$ArrayException@VException@matlab@@$0CJ@@detail@data@matlab@@UEBAPEBDXZ
	?what@?$ArrayException@VException@matlab@@$0CJ@@detail@data@matlab@@W7EBAPEBDXZ
	?what@?$ArrayException@VException@matlab@@$0CK@@detail@data@matlab@@UEBAPEBDXZ
	?what@?$ArrayException@VException@matlab@@$0CK@@detail@data@matlab@@W7EBAPEBDXZ
	?what@?$ArrayException@VException@matlab@@$0CL@@detail@data@matlab@@UEBAPEBDXZ
	?what@?$ArrayException@VException@matlab@@$0CL@@detail@data@matlab@@W7EBAPEBDXZ
	?what@?$ArrayException@VException@matlab@@$0CM@@detail@data@matlab@@UEBAPEBDXZ
	?what@?$ArrayException@VException@matlab@@$0CM@@detail@data@matlab@@W7EBAPEBDXZ
	?what@?$ArrayException@VException@matlab@@$0CN@@detail@data@matlab@@UEBAPEBDXZ
	?what@?$ArrayException@VException@matlab@@$0CN@@detail@data@matlab@@W7EBAPEBDXZ
	?what@?$ArrayException@VException@matlab@@$0CO@@detail@data@matlab@@UEBAPEBDXZ
	?what@?$ArrayException@VException@matlab@@$0CO@@detail@data@matlab@@W7EBAPEBDXZ
	?what@?$ArrayException@VException@matlab@@$0CP@@detail@data@matlab@@UEBAPEBDXZ
	?what@?$ArrayException@VException@matlab@@$0CP@@detail@data@matlab@@W7EBAPEBDXZ
	?what@?$ArrayException@VException@matlab@@$0DD@@detail@data@matlab@@UEBAPEBDXZ
	?what@?$ArrayException@VException@matlab@@$0DD@@detail@data@matlab@@W7EBAPEBDXZ
	?what@?$ArrayException@VException@matlab@@$0L@@detail@data@matlab@@UEBAPEBDXZ
	?what@?$ArrayException@VException@matlab@@$0L@@detail@data@matlab@@W7EBAPEBDXZ
	?what@?$ArrayException@VException@matlab@@$0M@@detail@data@matlab@@UEBAPEBDXZ
	?what@?$ArrayException@VException@matlab@@$0M@@detail@data@matlab@@W7EBAPEBDXZ
	?what@?$ArrayException@VException@matlab@@$0N@@detail@data@matlab@@UEBAPEBDXZ
	?what@?$ArrayException@VException@matlab@@$0N@@detail@data@matlab@@W7EBAPEBDXZ
	?what@?$ArrayException@VException@matlab@@$0O@@detail@data@matlab@@UEBAPEBDXZ
	?what@?$ArrayException@VException@matlab@@$0O@@detail@data@matlab@@W7EBAPEBDXZ
	?what@?$ArrayException@VException@matlab@@$0P@@detail@data@matlab@@UEBAPEBDXZ
	?what@?$ArrayException@VException@matlab@@$0P@@detail@data@matlab@@W7EBAPEBDXZ
	?what@error_code@system@mwboost@@QEBA?AV?$basic_string@DU?$char_traits@D@std@@V?$allocator@D@2@@std@@XZ
	?what@exception@std@@UEBAPEBDXZ
	?write@?$ROSBagWriterImpl@U?$msg_cm_@V?$allocator@X@std@@@cm@@Vcm_msg_msg_cm_common@@@@UEAA_NAEBV?$basic_string@DU?$char_traits@D@std@@V?$allocator@D@2@@std@@AEBI1AEBVStructArray@data@matlab@@@Z
	?write@MATLABRosbagWriterInterface@@UEAA_NAEBV?$basic_string@DU?$char_traits@D@std@@V?$allocator@D@2@@std@@AEBI1AEBVStructArray@data@matlab@@@Z
	__local_stdio_printf_options
	sprintf
